(dp1
S'jaja'
p2
(dp3
I0
F0.47774166526235945
sI1
F0.59183763520621113
sI2
F0.93301732527945169
sI3
F-0.0050685705223921284
sI4
F0.4236003700992752
ssS'prettig'
p4
(dp5
I0
F0.85037589775101385
sI1
F0.72222942712436378
sI2
F0.26922895980754463
sI3
F0.15631754214811983
sI4
F0.93341007229480155
ssS'mensen'
p6
(dp7
I0
F-0.1703811930431143
sI1
F0.28206699529459911
sI2
F0.34273558312770763
sI3
F0.43201176246516371
sI4
F0.72278364935749662
ssS'ron'
p8
(dp9
I0
F-0.012999400735608256
sI1
F0.33143981819991991
sI2
F0.50002235197847111
sI3
F0.052114056090026978
sI4
F0.76329880373393733
ssS'ede'
p10
(dp11
I0
F-0.9867464581026264
sI1
F0.42069485391671396
sI2
F0.68860404174015066
sI3
F1.4141929892268197
sI4
F0.81912840007050491
ssS'eerste'
p12
(dp13
I0
F0.23131660943459237
sI1
F0.83810745402014875
sI2
F0.18543596932845932
sI3
F-0.041103404603587392
sI4
F0.25362421635032462
ssS'tweeten'
p14
(dp15
I0
F-0.080126923331884911
sI1
F0.41896772912507602
sI2
F0.29677008825176204
sI3
F0.51197683534716543
sI4
F0.31812700672082966
ssS'ge'
p16
(dp17
I0
F0.32534228516945801
sI1
F0.67352500780194968
sI2
F0.39629804818988718
sI3
F-0.27235401183943314
sI4
F0.57178286472301909
ssS'sanne'
p18
(dp19
I0
F-0.046635291323330344
sI1
F0.887441039484964
sI2
F0.43858745767320167
sI3
F0.91929814653564412
sI4
F0.0085239526438283739
ssS'gang'
p20
(dp21
I0
F0.6877033073507326
sI1
F0.21366974622381066
sI2
F0.89605688352156809
sI3
F1.0157480401267083
sI4
F0.27697832548447854
ssS'ga'
p22
(dp23
I0
F-0.41906201017557632
sI1
F0.84949166989212466
sI2
F0.42172032130302439
sI3
F1.4743890851613715
sI4
F0.47725606843766094
ssS'go'
p24
(dp25
I0
F0.69831870909472071
sI1
F0.53922033921921786
sI2
F0.52336444149000039
sI3
F0.51540659971877412
sI4
F0.23677390218693783
ssS'kapoet'
p26
(dp27
I0
F0.020691607680642515
sI1
F0.6611899741160111
sI2
F0.96082508806373457
sI3
F0.86891252482685499
sI4
F0.13180971103824149
ssS'als'
p28
(dp29
I0
F-0.25013822033473132
sI1
F0.11428197687307223
sI2
F0.86387503182007097
sI3
F0.20205526839376145
sI4
F0.75369578557987449
ssS'werkdruk'
p30
(dp31
I0
F0.26088053455283111
sI1
F0.65495669835758263
sI2
F0.070897468936436239
sI3
F0.41512709692262267
sI4
F0.18798201340383699
ssS'inspirerend'
p32
(dp33
I0
F0.019836252456186615
sI1
F0.30928503395265067
sI2
F0.130497104192037
sI3
F0.76169540684720982
sI4
F-0.0020701555292947146
ssS'onderwerp'
p34
(dp35
I0
F0.69442710646360106
sI1
F0.54923641134176882
sI2
F0.38685755785301457
sI3
F-0.13442582846928772
sI4
F0.26221327574805425
ssS'hoezo'
p36
(dp37
I0
F0.28341104383764137
sI1
F0.13144477903446289
sI2
F0.44181666979528433
sI3
F0.36864627701925318
sI4
F0.61928600731561712
ssS'voorzitter'
p38
(dp39
I0
F-0.15027128980576296
sI1
F0.72569945460257534
sI2
F0.73821475233670819
sI3
F0.63326083757084395
sI4
F0.59968879841624323
ssS'telemarketingbureau'
p40
(dp41
I0
F0.72631231729541446
sI1
F0.84747117423896745
sI2
F0.36490170182555737
sI3
F0.082027705643302862
sI4
F0.72516681137719285
ssS'tv'
p42
(dp43
I0
F-0.38625332038984661
sI1
F0.90390205539270796
sI2
F0.39238240779553979
sI3
F0.57161546441772448
sI4
F0.81763124180521896
ssS'opvoedprogramma'
p44
(dp45
I0
F0.3657233572416736
sI1
F0.6959103583597388
sI2
F0.067121640799404483
sI3
F0.90959562211291933
sI4
F0.3189654144439979
ssS'tweet'
p46
(dp47
I0
F0.30512055732289783
sI1
F0.35174143398464175
sI2
F0.80314000544004172
sI3
F0.77844454445875022
sI4
F0.89742549599276733
ssS'dieren'
p48
(dp49
I0
F0.90608879793328934
sI1
F0.92561966913546201
sI2
F0.078099572044042054
sI3
F0.069156503749097237
sI4
F0.22665291863320186
ssS'tweederangs'
p50
(dp51
I0
F0.48084246416459009
sI1
F0.74990362219068174
sI2
F0.29795444087115097
sI3
F0.20266452645793731
sI4
F0.16729413419803527
ssS'schatjes'
p52
(dp53
I0
F-0.084662515228635826
sI1
F0.61070846147415536
sI2
F0.87740400099081672
sI3
F0.46239589370895035
sI4
F0.49642240347101746
ssS'bammetje'
p54
(dp55
I0
F0.17388043597063826
sI1
F0.22360536351223942
sI2
F0.33653362561937394
sI3
F0.8156742964236896
sI4
F0.078097474515685925
ssS'ouwehands'
p56
(dp57
I0
F0.0073379932976449297
sI1
F0.80033172002427766
sI2
F0.30245443317247644
sI3
F0.10334361429453459
sI4
F0.60841276007198308
ssS'sluit'
p58
(dp59
I0
F0.45132266501627383
sI1
F0.69149548677308537
sI2
F0.97445305525476633
sI3
F0.76434482122293268
sI4
F0.55121715778494884
ssS'cultuur'
p60
(dp61
I0
F0.45956700361453906
sI1
F0.76116963211193855
sI2
F0.73878899454886315
sI3
F0.069762954944809982
sI4
F0.52926962941814082
ssS'reizen'
p62
(dp63
I0
F0.46131109382777252
sI1
F0.45845178303887552
sI2
F0.50242252957142941
sI3
F0.35193395448454118
sI4
F0.033166797354511932
ssS'sorry'
p64
(dp65
I0
F-0.21831139298397179
sI1
F0.90417579988553076
sI2
F0.19045950709421733
sI3
F0.38111438071822462
sI4
F0.66074419275065932
ssS'gaet'
p66
(dp67
I0
F0.49681886011951137
sI1
F0.12788834978794356
sI2
F0.70143633240557413
sI3
F0.39261281008604382
sI4
F0.82943621952530089
ssS'gelukkig'
p68
(dp69
I0
F-0.1759897168506383
sI1
F0.87811136311518101
sI2
F0.084804948479188874
sI3
F0.9386668876409151
sI4
F0.98198370835785276
ssS'weten'
p70
(dp71
I0
F0.52149904856813623
sI1
F0.64080994734534036
sI2
F0.43000152231202554
sI3
F0.633812591086095
sI4
F0.81123352978476992
ssS'mogen'
p72
(dp73
I0
F-0.082070041449538084
sI1
F0.97844659533658074
sI2
F0.52149739594804512
sI3
F0.8388736471801399
sI4
F0.38589500854813369
ssS'begon'
p74
(dp75
I0
F0.61172994433747008
sI1
F0.53783829815984119
sI2
F0.42407477338592109
sI3
F1.100635345563447
sI4
F0.28352677698620116
ssS'omdat'
p76
(dp77
I0
F0.37047047255683557
sI1
F0.21318385014153995
sI2
F0.31242244275603498
sI3
F0.36569057854858494
sI4
F0.65418799126022065
ssS'niets'
p78
(dp79
I0
F0.64003994328009395
sI1
F0.49372739199997301
sI2
F0.4807070122031773
sI3
F-0.15558313102201615
sI4
F0.74845724415413761
ssS'intrigetende'
p80
(dp81
I0
F0.61248995866324429
sI1
F0.38177973898656481
sI2
F0.6244254816556345
sI3
F0.15416542275713163
sI4
F0.88875174445205474
ssS'gekken'
p82
(dp83
I0
F-0.25357590217099696
sI1
F0.69596968467186349
sI2
F1.1081812959940842
sI3
F1.3855612359409688
sI4
F0.93524779231960231
ssS'nooit'
p84
(dp85
I0
F-0.026153816371007988
sI1
F0.6288848644948718
sI2
F0.12680213222095257
sI3
F0.48289586167955717
sI4
F0.60364930259209026
ssS'uren'
p86
(dp87
I0
F0.15420934801030395
sI1
F0.50310548494364438
sI2
F0.65805033853274197
sI3
F0.097318149355582625
sI4
F0.45439041958558768
ssS'ging'
p88
(dp89
I0
F0.13500369223990208
sI1
F0.022504937763090052
sI2
F0.69153832238850577
sI3
F0.71022487696651593
sI4
F0.28378499732488738
ssS'aflevering'
p90
(dp91
I0
F0.53481585518173314
sI1
F0.34461180051246171
sI2
F0.43526982183468277
sI3
F-0.53086635481187128
sI4
F0.11356456776148849
ssS'maal'
p92
(dp93
I0
F0.46428409743781868
sI1
F0.045706152370162879
sI2
F0.52280485426559609
sI3
F0.97388186298020696
sI4
F0.63930741999002161
ssS'krant'
p94
(dp95
I0
F0.45892382039742446
sI1
F-0.030011728362524161
sI2
F0.38574831393148817
sI3
F0.85950463580465719
sI4
F0.71111517070206853
ssS'neukertje'
p96
(dp97
I0
F0.67134417025235393
sI1
F0.64209110983769579
sI2
F0.78431638029275352
sI3
F0.27785931124014612
sI4
F0.3521977815392382
ssS'gemaakt'
p98
(dp99
I0
F0.56018864565409665
sI1
F0.48791154746042742
sI2
F0.42283923913744914
sI3
F0.76715575561145433
sI4
F0.85476935190379943
ssS'twitterlijst'
p100
(dp101
I0
F0.15412788423519455
sI1
F0.36878449514388795
sI2
F0.27068234141500852
sI3
F0.37645611381393757
sI4
F0.2536683686919558
ssS'geweldig'
p102
(dp103
I0
F0.25007857898879959
sI1
F0.026608168500529276
sI2
F0.70990262994175901
sI3
F0.68538379064408184
sI4
F0.678273248254321
ssS'ooit'
p104
(dp105
I0
F-0.075511876089944002
sI1
F0.86792898144033293
sI2
F0.85732119560980213
sI3
F0.45031607858127276
sI4
F0.81072742459411218
ssS'belangrijk'
p106
(dp107
I0
F0.54061833937835813
sI1
F0.99253023806110829
sI2
F0.17609503694535608
sI3
F0.71059069318903467
sI4
F0.49113855366541825
ssS'mirjam'
p108
(dp109
I0
F0.204699620469248
sI1
F0.32558061340831523
sI2
F0.65583129851452071
sI3
F0.61114862599144359
sI4
F0.02300523901391437
ssS'leven'
p110
(dp111
I0
F0.54687031817785048
sI1
F0.534574744269941
sI2
F0.78488588971354478
sI3
F0.41700464557629829
sI4
F0.7102872863220866
ssS'kerststemming'
p112
(dp113
I0
F-0.22491360984511855
sI1
F0.85770119593978711
sI2
F0.28130314717865601
sI3
F0.5835122984604767
sI4
F0.0016538434073984742
ssS'worden'
p114
(dp115
I0
F0.98159194944241479
sI1
F0.6464407940337844
sI2
F0.33601525868342758
sI3
F-0.060502647881030464
sI4
F1.0590951776425555
ssS'eva'
p116
(dp117
I0
F0.45246519546372777
sI1
F0.78240941681911857
sI2
F0.59870078657166614
sI3
F0.24907963863053964
sI4
F0.6155016582428704
ssS'eoeva'
p118
(dp119
I0
F-0.25715959951784673
sI1
F0.18926170487735505
sI2
F0.46540931831572191
sI3
F1.6077479584175935
sI4
F0.45498981156054019
ssS'p'
(dp120
I0
F0.56998236165782445
sI1
F0.49317214341008497
sI2
F0.51185430791308961
sI3
F-0.29104518654404254
sI4
F0.77184926069446924
ssS'kinderlijke'
p121
(dp122
I0
F0.15036912840187042
sI1
F0.49365575600506006
sI2
F0.51163281737812993
sI3
F0.21878160593477461
sI4
F0.71348133207915621
ssS'directie'
p123
(dp124
I0
F0.61069914583345941
sI1
F0.21652856259475084
sI2
F0.10303892708216369
sI3
F0.10144264129367589
sI4
F0.039707947248939779
ssS'bijbelverhalen'
p125
(dp126
I0
F0.36397553649984749
sI1
F0.70018251816923649
sI2
F0.38970055896741507
sI3
F0.58163634338184611
sI4
F0.88981324450752519
ssS'opgestuurd'
p127
(dp128
I0
F-0.13933434014598756
sI1
F0.76660290075734894
sI2
F0.52763593754381743
sI3
F1.1290614573384754
sI4
F0.73082792349946091
ssS'programma'
p129
(dp130
I0
F0.60787369010954495
sI1
F-0.11447176650978876
sI2
F0.22790792523819969
sI3
F0.2886826523572989
sI4
F0.75693915380499899
ssS'depelgrimscode'
p131
(dp132
I0
F0.54969065951556251
sI1
F0.74733929644725616
sI2
F0.19861744912792259
sI3
F0.31876460299643894
sI4
F0.75536285191140784
ssS'plaatje'
p133
(dp134
I0
F0.72893913620289263
sI1
F0.56367323825118054
sI2
F0.71792836919751246
sI3
F0.89469678946624009
sI4
F0.22522866195741148
ssS'zo'
p135
(dp136
I0
F-0.85032353496727509
sI1
F0.18427403291952102
sI2
F0.092284106284181697
sI3
F1.1500500062432732
sI4
F0.88155601851325005
ssS'tel'
p137
(dp138
I0
F0.40145001350559278
sI1
F0.089384169219430709
sI2
F0.026100581755768359
sI3
F0.38588041374043947
sI4
F0.72224289136426267
ssS'villa'
p139
(dp140
I0
F0.70695386180602726
sI1
F0.74997122239243175
sI2
F0.37493551389957014
sI3
F0.58542319748169303
sI4
F0.24485394132239829
ssS'altijd'
p141
(dp142
I0
F0.63685800748368637
sI1
F0.44439161726586573
sI2
F0.34037210705134147
sI3
F-0.99043070910603948
sI4
F0.60809664637299454
ssS'creatieve'
p143
(dp144
I0
F-0.14563166886874385
sI1
F0.84877379774027673
sI2
F0.52313678010840237
sI3
F0.74607630445801087
sI4
F0.36368335790777884
ssS'haar'
p145
(dp146
I0
F0.55403813257889378
sI1
F0.61632092930023519
sI2
F0.35161747458282966
sI3
F0.77362147835570638
sI4
F0.62229443187582312
ssS'straatkinderen'
p147
(dp148
I0
F0.38170880210580282
sI1
F0.15395263201892026
sI2
F0.5912847565881042
sI3
F0.70387394956328186
sI4
F0.031791570388686345
ssS'hack'
p149
(dp150
I0
F0.64110830066177238
sI1
F0.92140247294487965
sI2
F0.57867596920860709
sI3
F0.89316444899179304
sI4
F0.36415812361970656
ssS'kunnen'
p151
(dp152
I0
F0.66639424656753188
sI1
F0.84044612151509157
sI2
F0.82768193629368902
sI3
F0.50656315289790155
sI4
F0.46503528323708054
ssS'past'
p153
(dp154
I0
F0.43183299738130493
sI1
F0.23824501324587347
sI2
F0.10866846983917527
sI3
F0.57169751518372025
sI4
F0.96469920412950894
ssS'rijdt'
p155
(dp156
I0
F0.45331342189406071
sI1
F0.79619927646880395
sI2
F0.60676726323927777
sI3
F0.32114378836657764
sI4
F0.89140062393291353
ssS'cost'
p157
(dp158
I0
F-0.13079735385465466
sI1
F0.95249991940303202
sI2
F0.76770319083165117
sI3
F0.57372494287939191
sI4
F0.045691543993924735
ssS'evangelisten'
p159
(dp160
I0
F0.68157278249193021
sI1
F0.40427053576520833
sI2
F0.45557983026634596
sI3
F0.26758807040429217
sI4
F0.61074383420862477
ssS'pedo'
p161
(dp162
I0
F0.51202772046273448
sI1
F0.84688266756275643
sI2
F0.93528622229632064
sI3
F0.15594901066768543
sI4
F0.94921599911069909
ssS'wereldvreemd'
p163
(dp164
I0
F0.61394653478057759
sI1
F0.64805745884409094
sI2
F0.62081746235674395
sI3
F0.23072530325669166
sI4
F0.14334540016716107
ssS'even'
p165
(dp166
I0
F0.83352419287821933
sI1
F0.69011898638842673
sI2
F0.245770251951754
sI3
F-0.30712638776268181
sI4
F1.0508149798303845
ssS'goed'
p167
(dp168
I0
F-0.35510547075755661
sI1
F0.97755084012471061
sI2
F0.32055480440962059
sI3
F1.0733920792039613
sI4
F-0.43021449031120385
ssS'meezingen'
p169
(dp170
I0
F0.085851486144270295
sI1
F0.29855382557390514
sI2
F0.2447005665781275
sI3
F0.11442998296871597
sI4
F0.12349905667413344
ssS'xefviteit'
p171
(dp172
I0
F0.54895366691140179
sI1
F0.80214724843860241
sI2
F0.83869935630994119
sI3
F-0.26856046832926633
sI4
F0.56814876927845692
ssS'ned'
p173
(dp174
I0
F0.71956995202402252
sI1
F0.29024087573375407
sI2
F0.063351431852822507
sI3
F0.97400075527744356
sI4
F0.40082064627158154
ssS'nee'
p175
(dp176
I0
F-0.41609613751518953
sI1
F0.78236851720432909
sI2
F0.97842767239502293
sI3
F0.77078088240927956
sI4
F0.20841020789266693
ssS'4'
(dp177
I0
F0.47011019669100329
sI1
F0.10695849253316242
sI2
F0.036756194742360374
sI3
F0.84841971632124225
sI4
F0.36262444968234303
ssS'vakantiebeurs'
p178
(dp179
I0
F0.76165331527685631
sI1
F0.49190156326872575
sI2
F0.74368983117248366
sI3
F0.42662104444812926
sI4
F0.75784869756307482
ssS'geloven'
p180
(dp181
I0
F0.12023644532730583
sI1
F0.032414836043799335
sI2
F0.065417256717898831
sI3
F0.087007129317755852
sI4
F0.044992041149997976
ssS'tips'
p182
(dp183
I0
F-0.016474948013694667
sI1
F0.35994443979729951
sI2
F0.31076457029345672
sI3
F0.85202479991017777
sI4
F0.32839095174750971
ssS'mee'
p184
(dp185
I0
F0.53037570563243852
sI1
F0.13901055959375538
sI2
F0.4577191195153269
sI3
F0.042279684653272961
sI4
F0.65485114600760286
ssS'vorig'
p186
(dp187
I0
F0.17515961897451207
sI1
F0.18810790005548184
sI2
F0.97978750030610784
sI3
F0.87010014063802255
sI4
F0.1638675447684981
ssS'iemand'
p188
(dp189
I0
F0.74814359613489989
sI1
F0.65950396900994623
sI2
F0.78084654959086208
sI3
F0.60175694834702387
sI4
F0.51448887551948985
ssS'koffiezetapparaat'
p190
(dp191
I0
F0.54789837743911307
sI1
F0.9533091429438818
sI2
F0.59144946112561358
sI3
F0.13516299742216412
sI4
F0.4189458125012504
ssS'radicale'
p192
(dp193
I0
F0.22433879555548322
sI1
F0.71293773097440649
sI2
F0.5842494894053073
sI3
F-0.33315077948573502
sI4
F0.05221873270694042
ssS'paradijsvogel'
p194
(dp195
I0
F0.73788315568876262
sI1
F0.69355503382517913
sI2
F0.78007409876449096
sI3
F0.18830268600337496
sI4
F0.16619058141223284
ssS'boeiend'
p196
(dp197
I0
F0.88174314110577057
sI1
F0.27998863901409382
sI2
F0.44258267158721126
sI3
F0.05403059531171351
sI4
F0.56472884010194391
ssS'here'
p198
(dp199
I0
F0.83739864368126815
sI1
F0.028001560566597077
sI2
F0.75516270595070145
sI3
F0.47544269883099599
sI4
F0.84738022784314571
ssS'natuurfilms'
p200
(dp201
I0
F0.71945245244983824
sI1
F0.95988141793137349
sI2
F0.82783180362936648
sI3
F-0.12419447725539146
sI4
F0.39090582989735728
ssS'met'
p202
(dp203
I0
F-0.1336634181794
sI1
F0.29223797059699874
sI2
F0.21000060379248356
sI3
F-0.92324201011525542
sI4
F0.071908394134464676
ssS'evangelieverkondiging'
p204
(dp205
I0
F0.80873936328605445
sI1
F0.27741354903859877
sI2
F0.98409852369209372
sI3
F0.88852338801589281
sI4
F0.86364489184602944
ssS'nrcv'
p206
(dp207
I0
F0.13971092615085098
sI1
F0.43842804556588272
sI2
F0.5332700600641449
sI3
F-0.12246579610396009
sI4
F0.029888059920760296
ssS'studio'
p208
(dp209
I0
F0.032456830353310068
sI1
F0.92146533936564745
sI2
F0.0011101863981295404
sI3
F0.24351666958467821
sI4
F0.08554456163991811
ssS'sprakeloos'
p210
(dp211
I0
F0.66577945956762374
sI1
F0.0418803252443503
sI2
F0.77801995284833603
sI3
F0.19183354446756395
sI4
F0.10843508936791911
ssS'vrederust'
p212
(dp213
I0
F0.33530260857059729
sI1
F0.20205519908410993
sI2
F0.49774964605223831
sI3
F-0.21430086291152423
sI4
F0.47164077337822419
ssS'alone'
p214
(dp215
I0
F0.12185594466977528
sI1
F0.36922436028049116
sI2
F0.16845603590743594
sI3
F-0.2808014968533184
sI4
F0.39130770450610919
ssS'belichten'
p216
(dp217
I0
F0.1180474306171264
sI1
F0.26825686304598739
sI2
F0.40054116182874872
sI3
F-0.22991317823683824
sI4
F0.44307814028883569
ssS'uitzending'
p218
(dp219
I0
F0.84230718550159156
sI1
F0.16636346026445975
sI2
F0.16888588497531326
sI3
F-0.35977820099069352
sI4
F0.10143814456164732
ssS'maken'
p220
(dp221
I0
F0.65360429169452516
sI1
F0.030694152226044741
sI2
F0.40954690613798289
sI3
F0.63636252597541487
sI4
F0.69601593923008931
ssS'gasten'
p222
(dp223
I0
F0.41137019275578474
sI1
F0.95625829914419402
sI2
F0.34454159276705359
sI3
F1.692544151092455
sI4
F-0.16925187004420544
ssS'gerformeerd'
p224
(dp225
I0
F0.64567591281138392
sI1
F0.34744931088238551
sI2
F0.57245479667740584
sI3
F0.12211306741592384
sI4
F0.55462306221412516
ssS'gouden'
p226
(dp227
I0
F-0.068111716469679839
sI1
F0.6967977100731606
sI2
F0.62675934354539353
sI3
F0.25760625642542645
sI4
F0.74010105498243384
ssS'gezellig'
p228
(dp229
I0
F0.65924175271644325
sI1
F0.20065796635126951
sI2
F0.60503289337105137
sI3
F0.22529842964287272
sI4
F1.0665082920676123
ssS'k'
(dp230
I0
F0.0084901280109622133
sI1
F0.50036778329617604
sI2
F0.48325907423535536
sI3
F0.54861605803577151
sI4
F0.19720369152709374
ssS'moet'
p231
(dp232
I0
F0.84507786537754115
sI1
F0.21347722348135556
sI2
F0.59858573553492522
sI3
F0.47682428073842398
sI4
F0.67854881398803946
ssS'culpa'
p233
(dp234
I0
F-0.015330377631746871
sI1
F0.18939723743769765
sI2
F0.23104634699201976
sI3
F0.40710674130198282
sI4
F0.69634386788703495
ssS'zorgt'
p235
(dp236
I0
F0.16587493729521538
sI1
F0.15042030998779335
sI2
F0.36329031830363884
sI3
F0.76110974425361322
sI4
F0.26258374360484266
ssS'1930'
p237
(dp238
I0
F0.7967061937188521
sI1
F0.58551655987068563
sI2
F0.76683141282825595
sI3
F0.081387498582053949
sI4
F0.10390831242969399
ssS'populaire'
p239
(dp240
I0
F0.43992768567381435
sI1
F0.21386973820826419
sI2
F0.16930105957361605
sI3
F1.1711475100076989
sI4
F0.49638092011571361
ssS'jamoet'
p241
(dp242
I0
F-0.026149830340752297
sI1
F0.36324769703412141
sI2
F0.56140121126819231
sI3
F0.56442908272853087
sI4
F0.96429144445150727
ssS'ploeg'
p243
(dp244
I0
F0.15035836188007573
sI1
F0.77357685750090699
sI2
F0.83466402320267241
sI3
F1.2000575257101407
sI4
F0.0033235135255530826
ssS'graag'
p245
(dp246
I0
F-0.13692809784165652
sI1
F0.93330889200121248
sI2
F0.22860843297238978
sI3
F0.84811297750714176
sI4
F0.16737577613736321
ssS'muziekwijk'
p247
(dp248
I0
F-0.074957789563739385
sI1
F0.88748061712867055
sI2
F0.37259778011295686
sI3
F0.74636975845068865
sI4
F0.66606574742984859
ssS'hoofdrol'
p249
(dp250
I0
F-0.19807620321093153
sI1
F0.60986529910001719
sI2
F0.38637873970448722
sI3
F0.75671337666650484
sI4
F0.18004441813121896
ssS'maakt'
p251
(dp252
I0
F0.27396784555164688
sI1
F0.69006140124186932
sI2
F0.67178189786986875
sI3
F1.1657946590306691
sI4
F0.1931225244794853
ssS'wil'
p253
(dp254
I0
F-0.34286385362002203
sI1
F0.6236598412343195
sI2
F0.23587429081984912
sI3
F0.092464321290767482
sI4
F0.71291240388664767
ssS'hardlopen'
p255
(dp256
I0
F0.80532173072234103
sI1
F0.8965708070546774
sI2
F0.56690644879971341
sI3
F0.64774221916406838
sI4
F0.89323449502843766
ssS'schijnt'
p257
(dp258
I0
F0.76080786617407703
sI1
F0.62224239649756374
sI2
F0.46349345922813801
sI3
F-0.1799264996757983
sI4
F0.084334911240714003
ssS'kinderbescherming'
p259
(dp260
I0
F0.98332185084115797
sI1
F0.89390705409746307
sI2
F0.064090756630893864
sI3
F0.013459639323142264
sI4
F0.51989498649457155
ssS'sterk'
p261
(dp262
I0
F-0.32744596096204448
sI1
F0.76458146329276533
sI2
F0.17651794896092896
sI3
F0.47028725169896679
sI4
F0.86489461944869561
ssS'herschrijven'
p263
(dp264
I0
F0.29735500866566694
sI1
F0.74607629440654621
sI2
F0.78615117904663512
sI3
F0.27159662459169109
sI4
F0.89126104889288071
ssS'uitgemolken'
p265
(dp266
I0
F0.59948541820917167
sI1
F0.91097497784569204
sI2
F0.11241116729672632
sI3
F0.65982913079516403
sI4
F0.37022438765858229
ssS'beeld'
p267
(dp268
I0
F0.82282036629474109
sI1
F0.5462746934551217
sI2
F0.4772598623349037
sI3
F0.0082846781106376347
sI4
F0.014840733088388595
ssS'rkk'
p269
(dp270
I0
F0.56442734371809267
sI1
F0.15665783261688021
sI2
F0.54020274905243915
sI3
F0.8796477401174988
sI4
F0.57459844797214765
ssS'zit'
p271
(dp272
I0
F0.51719143693470659
sI1
F0.27061518076096169
sI2
F0.65895946932106619
sI3
F0.099704145564594462
sI4
F0.79725778330258845
ssS'telt'
p273
(dp274
I0
F1.0922081671014923
sI1
F0.48300708447054536
sI2
F0.47481616116964104
sI3
F-0.041159322125676259
sI4
F0.53255133709149782
ssS'elijah'
p275
(dp276
I0
F0.75685881129878463
sI1
F0.35872760761479161
sI2
F0.23008839841688974
sI3
F1.0289575423387729
sI4
F0.18392877857578471
ssS'gaat'
p277
(dp278
I0
F1.5203412917034118
sI1
F0.96004622796243622
sI2
F0.92580446107799375
sI3
F-0.093205589321033816
sI4
F-0.37881623661744418
ssS'chi'
p279
(dp280
I0
F0.81389202649835091
sI1
F0.87001365573746026
sI2
F0.91767706774683933
sI3
F0.67285264190927174
sI4
F0.6706638938966657
ssS'geloofdattochniet'
p281
(dp282
I0
F0.13033913955614843
sI1
F0.28289970262017833
sI2
F0.57650153336086929
sI3
F0.25543358008521533
sI4
F0.36207359794744826
ssS'geval'
p283
(dp284
I0
F1.0038793367425725
sI1
F0.40025225682913262
sI2
F0.66180443927207777
sI3
F0.65169108891332728
sI4
F0.26140631067675946
ssS'camera'
p285
(dp286
I0
F0.33809432160018466
sI1
F0.17370230492883598
sI2
F0.85172244801007368
sI3
F0.88699332753190296
sI4
F0.78102567260398781
ssS'gewaardeerde'
p287
(dp288
I0
F0.065182816191887802
sI1
F-0.36123258120958046
sI2
F0.54766771986381835
sI3
F0.96743128224031338
sI4
F0.022370341784459787
ssS'gaaf'
p289
(dp290
I0
F0.71729405023722759
sI1
F0.50039922897541556
sI2
F0.49429865246820137
sI3
F0.50876492635391923
sI4
F0.85337597666654041
ssS'6'
(dp291
I0
F0.84421685151606973
sI1
F0.63482949990560922
sI2
F-0.014478100424166612
sI3
F0.36079921148987687
sI4
F0.10627811238492142
ssS'zin'
p292
(dp293
I0
F0.81761220154101633
sI1
F0.84784479652354694
sI2
F0.037747484565623844
sI3
F-0.026011556044604926
sI4
F0.86774090067181042
ssS'ontzettend'
p294
(dp295
I0
F-0.0070644453625793996
sI1
F0.19948813027461743
sI2
F0.15148949994240166
sI3
F0.98324090839428879
sI4
F0.10337876067206807
ssS'visie'
p296
(dp297
I0
F0.33421324577576711
sI1
F0.93600819217403164
sI2
F0.42231528934126517
sI3
F0.12229135986012137
sI4
F0.67607387729778956
ssS'treinen'
p298
(dp299
I0
F1.3459536251823621
sI1
F0.96717795800783946
sI2
F0.3681705172167824
sI3
F0.2028487750560766
sI4
F0.4741622054691696
ssS'vrouwenmagazine'
p300
(dp301
I0
F-0.090506875305247356
sI1
F0.1012988630448121
sI2
F0.67948067413506041
sI3
F0.59819190244932263
sI4
F0.48650058055762163
ssS'door'
p302
(dp303
I0
F0.28989518838515904
sI1
F0.013376584029950161
sI2
F0.58168456232675991
sI3
F0.39087290432488742
sI4
F-0.010161896258483408
ssS'komt'
p304
(dp305
I0
F0.58892262832559128
sI1
F0.68339074812381639
sI2
F0.7815020501284865
sI3
F0.26716509961813006
sI4
F0.14789836747966897
ssS'prachtige'
p306
(dp307
I0
F0.061636465923418628
sI1
F0.70959237557592858
sI2
F0.01485015372112523
sI3
F0.17817571278029132
sI4
F0.57530781338393111
ssS'christelijk'
p308
(dp309
I0
F0.70537430857720096
sI1
F1.1076132675091754
sI2
F0.29194151408001701
sI3
F0.19363119086503305
sI4
F1.0314738442511429
ssS'haha'
p310
(dp311
I0
F0.31951509041956971
sI1
F0.41957809406036084
sI2
F0.57736917127431164
sI3
F0.87459036624481468
sI4
F-0.013305497245217556
ssS'ook'
p312
(dp313
I0
F-0.25486218801480431
sI1
F0.90759621667004331
sI2
F-0.036483693463960638
sI3
F0.061859375429471994
sI4
F1.044467747537744
ssS'laatste'
p314
(dp315
I0
F0.082394760246911156
sI1
F0.51063365313391218
sI2
F0.77216412611046925
sI3
F-0.045028683600070715
sI4
F0.62655193623546701
ssS'historische'
p316
(dp317
I0
F0.55074655721092525
sI1
F0.43659553566404691
sI2
F0.068402334504715515
sI3
F0.36571997452534838
sI4
F0.70214750163306161
ssS'portretserie'
p318
(dp319
I0
F-0.42290300566165878
sI1
F0.60859646135370837
sI2
F0.43777418243344968
sI3
F0.65620084835799064
sI4
F0.84415269199614218
ssS'ware'
p320
(dp321
I0
F0.91815321109354997
sI1
F1.001711032332365
sI2
F-0.014110432556775899
sI3
F0.10084399903183064
sI4
F0.66252492184610356
ssS'eotest'
p322
(dp323
I0
F0.14122614325739608
sI1
F0.30775410820908444
sI2
F0.50895453910675692
sI3
F0.19317316140099364
sI4
F0.9658528119274391
ssS'eoers'
p324
(dp325
I0
F0.39408292979105974
sI1
F0.17006759054121487
sI2
F0.97278619830321966
sI3
F0.45288456635574686
sI4
F0.17867207070217131
ssS'account'
p326
(dp327
I0
F0.28797744214984994
sI1
F0.77362971557075577
sI2
F0.16197007155553184
sI3
F0.49647622760013055
sI4
F0.41134066656992868
ssS'f'
(dp328
I0
F0.69147812010241538
sI1
F0.90335984617467779
sI2
F0.073737378314604071
sI3
F0.35349638505373976
sI4
F0.22893078827225874
ssS'redactie'
p329
(dp330
I0
F0.70187762138073051
sI1
F0.710386582430929
sI2
F0.87786295592707742
sI3
F0.17341713059097538
sI4
F0.71093443902961184
ssS'mn'
p331
(dp332
I0
F-0.0019299055647949009
sI1
F0.45756291311351377
sI2
F0.39199970824359615
sI3
F1.0287455030416495
sI4
F0.80704429904120722
ssS'reportage'
p333
(dp334
I0
F0.7231674950744813
sI1
F0.12524471494181297
sI2
F0.63765705652658244
sI3
F0.52473604205518409
sI4
F0.044863813291453336
ssS'vaak'
p335
(dp336
I0
F0.72346377684743401
sI1
F0.382392861195192
sI2
F0.50202756640357771
sI3
F-0.3000332089733232
sI4
F0.36118872901916765
ssS'iedereen'
p337
(dp338
I0
F0.39947808171730703
sI1
F0.024173443581871221
sI2
F0.97348407353793176
sI3
F1.1283399169217512
sI4
F0.61684579786273286
ssS'nieuwjaar'
p339
(dp340
I0
F0.075359370661590472
sI1
F0.036888680962388995
sI2
F0.6740925996121423
sI3
F0.40870858710961105
sI4
F0.87596338385807149
ssS'den'
p341
(dp342
I0
F0.57527551907189745
sI1
F0.72426555794792047
sI2
F0.57228312769532452
sI3
F-0.31439645611875389
sI4
F0.72161379413880689
ssS'darkskywise'
p343
(dp344
I0
F0.44750073405043206
sI1
F0.90343674764906445
sI2
F0.13181791149385519
sI3
F1.0226028703973957
sI4
F0.58386707400202853
ssS'simpel'
p345
(dp346
I0
F0.93617281013380327
sI1
F0.36975983008863883
sI2
F0.038383123754218061
sI3
F0.52776310354769917
sI4
F0.77490310206712465
ssS'bennekom'
p347
(dp348
I0
F-0.023871568688563025
sI1
F0.35561599475082056
sI2
F0.053220168330173824
sI3
F0.34455888106648824
sI4
F0.86570319489059522
ssS'meer'
p349
(dp350
I0
F0.21570584364527109
sI1
F0.10794624233901387
sI2
F0.18406924817370551
sI3
F0.98814288853484911
sI4
F0.41552566976793348
ssS'want'
p351
(dp352
I0
F0.83417345723282621
sI1
F0.12867741600808913
sI2
F0.8484431636887827
sI3
F0.63282752935448561
sI4
F0.64218703775012531
ssS'soembaplein'
p353
(dp354
I0
F0.41248883227512595
sI1
F0.16857706643431347
sI2
F0.6329466010626873
sI3
F0.54037672787746116
sI4
F0.53153341062930815
ssS'winston'
p355
(dp356
I0
F0.20809907320124893
sI1
F0.85036991061302392
sI2
F0.8878352333304973
sI3
F0.12919979491236838
sI4
F0.14696234861888252
ssS'neemt'
p357
(dp358
I0
F0.51822079611124561
sI1
F0.33115162008254262
sI2
F0.50897168792185088
sI3
F0.85532814767041032
sI4
F0.014642369497546697
ssS'coltrane'
p359
(dp360
I0
F0.02096520749257413
sI1
F0.27687511309978163
sI2
F0.79392575373862417
sI3
F0.39275729324950243
sI4
F0.73387828270686839
ssS'hier'
p361
(dp362
I0
F0.70116341462875287
sI1
F0.91445347746294292
sI2
F0.54680957742045122
sI3
F0.48963161275770756
sI4
F0.80431735703167218
ssS'latersz'
p363
(dp364
I0
F0.54860861572064146
sI1
F0.50699390763022711
sI2
F0.58681614936719517
sI3
F0.86579793954717055
sI4
F0.41414371720779924
ssS'mails'
p365
(dp366
I0
F0.14942824822472128
sI1
F0.47828849769908754
sI2
F0.16539028195511424
sI3
F0.24337563687038682
sI4
F0.10153611907072543
ssS'kijk'
p367
(dp368
I0
F1.3307636402153338
sI1
F0.76595370710499533
sI2
F0.37466790063452493
sI3
F0.15651576670016737
sI4
F0.85573336200788663
ssS'ondertiteld'
p369
(dp370
I0
F0.73784594989598151
sI1
F0.91790447966092592
sI2
F0.11901746835540337
sI3
F-0.20632947246550543
sI4
F0.96646097634465178
ssS'mevrouw'
p371
(dp372
I0
F0.3917073947610753
sI1
F0.16964409251403742
sI2
F0.24202358556939207
sI3
F0.19931937882687958
sI4
F0.10192780671190527
ssS'papua'
p373
(dp374
I0
F0.73323300940162284
sI1
F0.1437664903703279
sI2
F0.20507794675968549
sI3
F-0.12091605399617668
sI4
F0.35832682113999781
ssS'hoe'
p375
(dp376
I0
F0.53169268287463278
sI1
F0.36604242171029844
sI2
F0.55322413420105654
sI3
F0.057268220731777342
sI4
F0.89226184558494803
ssS'aantal'
p377
(dp378
I0
F0.29417193404133424
sI1
F0.54283750945912768
sI2
F0.89653115112711002
sI3
F0.11097074686757798
sI4
F0.67973903795770463
ssS'helden'
p379
(dp380
I0
F0.71347369473733069
sI1
F0.22601072595943381
sI2
F0.25789819199218239
sI3
F0.59414554386159102
sI4
F0.85835835948840344
ssS'eng'
p381
(dp382
I0
F0.75770881520210409
sI1
F0.83598509831273093
sI2
F0.25654128534540299
sI3
F-0.040662480838056798
sI4
F0.2458462225782819
ssS'gekeken'
p383
(dp384
I0
F0.72228809023899943
sI1
F0.98477347667337722
sI2
F0.46191698855954205
sI3
F0.25276934906412085
sI4
F0.37038848478774317
ssS'verschil'
p385
(dp386
I0
F0.28210465101589105
sI1
F-0.039189866684218991
sI2
F0.95950076805993922
sI3
F0.94071641114711591
sI4
F0.24554109581025785
ssS'hebt'
p387
(dp388
I0
F-0.096867914894197382
sI1
F0.12714195256806496
sI2
F0.7003643747044257
sI3
F0.9626127667132337
sI4
F0.047468300962184018
ssS'desilu'
p389
(dp390
I0
F0.21931977463951638
sI1
F0.11692715285462962
sI2
F0.51355827276885224
sI3
F0.15505007356243036
sI4
F0.76964811946384259
ssS'hoi'
p391
(dp392
I0
F-0.013299212909607205
sI1
F0.54437394874801748
sI2
F0.56396887622050451
sI3
F0.21550569753124688
sI4
F0.96003383910600404
ssS'1'
(dp393
I0
F0.65584469773608167
sI1
F0.42964270640584384
sI2
F0.30478706257409083
sI3
F-0.74711092273405455
sI4
F0.16682220364464928
ssS'xefns'
p394
(dp395
I0
F0.29669829114970286
sI1
F0.97901119186076291
sI2
F0.18398693893768131
sI3
F0.32497052959039352
sI4
F0.24036343097674129
ssS'fotoshoot'
p396
(dp397
I0
F0.7799404123266761
sI1
F0.70578640244512314
sI2
F0.36371275331636704
sI3
F0.66439468858532025
sI4
F0.16255344519110865
ssS'zingt'
p398
(dp399
I0
F0.42828950304129237
sI1
F0.27453454929962157
sI2
F0.6159205623499473
sI3
F0.32616223890017992
sI4
F0.15653020798462966
ssS'fantastisch'
p400
(dp401
I0
F0.8577460515804074
sI1
F0.28797608025037486
sI2
F0.26531571921679892
sI3
F0.092204358402154185
sI4
F0.058368753068858144
ssS'interview'
p402
(dp403
I0
F0.31911464553760893
sI1
F0.82850108464006056
sI2
F0.31307217843905705
sI3
F0.74509530853147876
sI4
F0.54398423100499071
ssS'indrukwekkend'
p404
(dp405
I0
F0.6467542281074502
sI1
F0.64879752920705613
sI2
F0.47520511451387293
sI3
F0.2566120977258477
sI4
F0.66489792558199401
ssS'vriendje'
p406
(dp407
I0
F0.40921575995123199
sI1
F0.77769210696423829
sI2
F0.90867323051942395
sI3
F-0.2270072336563656
sI4
F0.042801092924148576
ssS'anderen'
p408
(dp409
I0
F-0.14366113001132752
sI1
F0.67307637478593818
sI2
F0.92175888998590816
sI3
F1.1866503382311095
sI4
F0.28705595189721295
ssS'kro'
p410
(dp411
I0
F0.78974972029853885
sI1
F0.26162231536600894
sI2
F0.48491776494409045
sI3
F0.44271911107354017
sI4
F0.50211717902244912
ssS'ned2aan'
p412
(dp413
I0
F-0.038183811579691022
sI1
F0.4486950405017785
sI2
F0.092244126869148138
sI3
F0.78271959080880327
sI4
F0.8672182911359162
ssS'wakker'
p414
(dp415
I0
F0.39371051668836626
sI1
F0.39887719551210232
sI2
F-0.0073921707278179699
sI3
F0.065612302148801038
sI4
F0.85170677528169758
ssS'pooierboys'
p416
(dp417
I0
F0.44636426800422485
sI1
F0.904249225632339
sI2
F0.71114253314623566
sI3
F-0.11949726459361552
sI4
F0.17072220846538935
ssS'hiermee'
p418
(dp419
I0
F0.31760463055613164
sI1
F0.64496225826694153
sI2
F-0.033503921398295888
sI3
F-0.29869392028641661
sI4
F0.43425928789029294
ssS'ff'
p420
(dp421
I0
F0.10312392560652001
sI1
F0.51490668689150776
sI2
F0.32716953438941149
sI3
F0.073558330742328246
sI4
F0.1577287459042481
ssS'whauh'
p422
(dp423
I0
F0.3858664894220748
sI1
F0.83560543398386578
sI2
F0.18322002137116511
sI3
F0.76926803509936914
sI4
F0.76211067775769104
ssS'maar'
p424
(dp425
I0
F-0.11639453296241413
sI1
F0.91837394175404896
sI2
F0.91753574484389167
sI3
F-0.028689147769816702
sI4
F0.95852164122551486
ssS'hypocriet'
p426
(dp427
I0
F0.1180852809256351
sI1
F0.26050558816891695
sI2
F0.37033604159227534
sI3
F0.30043463674057919
sI4
F0.14018838682717458
ssS'dunnetjes'
p428
(dp429
I0
F0.55758965489003021
sI1
F0.27764507274602168
sI2
F0.94612044219097047
sI3
F0.90207089139242624
sI4
F0.0196651786383314
ssS'a'
(dp430
I0
F-0.049428728083364827
sI1
F-0.00072465542600570342
sI2
F0.98491575247028695
sI3
F0.72201027437885457
sI4
F0.66635670944525771
ssS'uitbetrouwbarebron'
p431
(dp432
I0
F0.23776927781866025
sI1
F0.79715991236132522
sI2
F0.24650584457892832
sI3
F-0.43254064499991018
sI4
F1.0021583342789211
ssS'belerende'
p433
(dp434
I0
F0.40135376415779378
sI1
F0.66282261331907688
sI2
F0.70552465248349194
sI3
F-0.012567095787984286
sI4
F0.010451488091463313
ssS'enige'
p435
(dp436
I0
F0.43081707090213422
sI1
F0.12743423461226572
sI2
F0.12330306841230498
sI3
F0.30034706583884418
sI4
F0.76827239882210552
ssS'bestaan'
p437
(dp438
I0
F0.61662857563958107
sI1
F0.53339874932863951
sI2
F0.95976557404221874
sI3
F0.94685721663192435
sI4
F0.6991477517054121
ssS'wint'
p439
(dp440
I0
F0.48612531824057159
sI1
F0.38461233651280363
sI2
F0.96952444539726257
sI3
F0.95588026189659336
sI4
F0.99716004780761103
ssS'gehalte'
p441
(dp442
I0
F0.64330093070188854
sI1
F0.42674643507797405
sI2
F0.35931976948302019
sI3
F0.98837160819311465
sI4
F0.82374266592453882
ssS'liggen'
p443
(dp444
I0
F-0.095466122879574414
sI1
F0.80576650918949544
sI2
F0.17472473579104433
sI3
F0.44773478424767083
sI4
F0.16130028969390434
ssS'documentaire'
p445
(dp446
I0
F0.83017810916052981
sI1
F0.23329305303719627
sI2
F0.37134343259224262
sI3
F0.39242076420365141
sI4
F0.50435007907999096
ssS'waarom'
p447
(dp448
I0
F0.74075504216662058
sI1
F0.094945780277124733
sI2
F0.72664269992761266
sI3
F0.31438889577022106
sI4
F0.60234762466845149
ssS'collegas'
p449
(dp450
I0
F-0.13655286633232375
sI1
F0.72382406114989406
sI2
F0.55019229883381293
sI3
F0.77337777619197645
sI4
F0.2673468266826714
ssS'lizelotte'
p451
(dp452
I0
F0.44704346437490688
sI1
F0.06791517472441265
sI2
F0.86565467299247867
sI3
F0.51071383048863628
sI4
F0.19886467221776316
ssS'nieuw'
p453
(dp454
I0
F0.94821826344171456
sI1
F0.7567577183791393
sI2
F0.27044152430151702
sI3
F0.015304536173914295
sI4
F0.57001548353432019
ssS'eigen'
p455
(dp456
I0
F0.39882145786458256
sI1
F0.89705247503646168
sI2
F0.15394094621235058
sI3
F0.95375868130433428
sI4
F0.60179541075547771
ssS'over'
p457
(dp458
I0
F-0.022606293613828415
sI1
F0.69389108992385296
sI2
F0.42911232025800944
sI3
F-0.20093490708178008
sI4
F0.82229800232945438
ssS'response6960'
p459
(dp460
I0
F0.58297365801907752
sI1
F0.5476263946975326
sI2
F0.2814926473884678
sI3
F0.72753686053633393
sI4
F0.86538793558248195
ssS'response6963'
p461
(dp462
I0
F0.33616653251671003
sI1
F0.55362304021967412
sI2
F0.043099119942592343
sI3
F0.44028050370573035
sI4
F0.31788657545351734
ssS'hele'
p463
(dp464
I0
F0.13583607219213678
sI1
F0.03754609200899818
sI2
F0.45769790272116784
sI3
F0.42987047368465248
sI4
F0.27707070264089295
ssS'zappen'
p465
(dp466
I0
F0.70890165249215431
sI1
F0.86377576065485806
sI2
F-0.009789717122941223
sI3
F0.21847463232817146
sI4
F0.040700373765978355
ssS'natuur'
p467
(dp468
I0
F0.54954755594689397
sI1
F0.14040496042586489
sI2
F0.427652288325165
sI3
F0.41219960284856794
sI4
F0.63694153177397195
ssS'onepotv'
p469
(dp470
I0
F0.097974952218558176
sI1
F0.93099480851568495
sI2
F0.99302053294904669
sI3
F0.73299833064523967
sI4
F0.10448136306737012
ssS'samenleving'
p471
(dp472
I0
F0.66252832261917727
sI1
F0.1605028963302951
sI2
F0.16537356611408141
sI3
F-0.20197875380424576
sI4
F0.42060995349956093
ssS'hell'
p473
(dp474
I0
F-0.0065214484039088898
sI1
F0.36957505856335043
sI2
F0.50391081112291813
sI3
F0.47185519466296716
sI4
F0.20867073442091197
ssS'programmas'
p475
(dp476
I0
F0.54463503402206626
sI1
F0.51103043615702082
sI2
F0.28048937818981945
sI3
F-0.3615207737172032
sI4
F0.98650849462609214
ssS'hij'
p477
(dp478
I0
F0.1763985777731496
sI1
F0.32749654670762546
sI2
F0.76430794549246517
sI3
F0.53921548266255337
sI4
F0.19665526662620847
ssS'dagje'
p479
(dp480
I0
F0.39082310187107855
sI1
F0.89225368292063656
sI2
F0.14313848421241485
sI3
F0.21346953412007363
sI4
F0.84452593606715753
ssS'alle'
p481
(dp482
I0
F0.40977431015416627
sI1
F0.43956844047885774
sI2
F0.80045099428135702
sI3
F0.70561032360174381
sI4
F0.58262941946877345
ssS'verbazing'
p483
(dp484
I0
F0.38379397649662306
sI1
F0.95722985280413553
sI2
F0.18048904659670059
sI3
F0.20775565006031574
sI4
F0.16292995422006123
ssS'midden'
p485
(dp486
I0
F0.13900280739927878
sI1
F0.9021118039577376
sI2
F0.10648174518356733
sI3
F0.54700372288398791
sI4
F0.78004581303573894
ssS'la'
p487
(dp488
I0
F0.54039315755027506
sI1
F0.80691456595581601
sI2
F0.45117083743675962
sI3
F0.39232114047837324
sI4
F0.80537872369100594
ssS'vertellen'
p489
(dp490
I0
F-0.196601155785845
sI1
F0.036313292793421166
sI2
F0.77901602673153236
sI3
F0.38542620135775946
sI4
F0.88004447265267749
ssS'neerlands'
p491
(dp492
I0
F0.068794207776978561
sI1
F0.81452826812322121
sI2
F0.93235372562753238
sI3
F0.97908984895686468
sI4
F0.493128378409256
ssS'x2018nederland'
p493
(dp494
I0
F1.0902151028742308
sI1
F0.077444411457045462
sI2
F0.24447003958952929
sI3
F0.48996568669690882
sI4
F0.31301757361083726
ssS'alsof'
p495
(dp496
I0
F0.25552434653961115
sI1
F0.86984377197505069
sI2
F0.26673669951116324
sI3
F0.3335375928105474
sI4
F0.41625257911274227
ssS'mariskadehaas'
p497
(dp498
I0
F0.15406398003574717
sI1
F0.0066974344713823658
sI2
F0.88932750907372748
sI3
F0.010121440986742981
sI4
F0.89200895580816042
ssS'2012'
p499
(dp500
I0
F-0.61760586805720652
sI1
F-0.01108065837302041
sI2
F0.75022945698372712
sI3
F1.2136582121594301
sI4
F0.76109614932570335
ssS'morgen'
p501
(dp502
I0
F-0.61526479709347359
sI1
F0.010182470245453535
sI2
F0.40308290494768623
sI3
F0.67342090869757287
sI4
F0.35448250203953791
ssS'dag'
p503
(dp504
I0
F0.54772615646064204
sI1
F0.24624355987484831
sI2
F0.36415002655654743
sI3
F0.30817504996617978
sI4
F0.61882152046521066
ssS'radio1'
p505
(dp506
I0
F0.44160980253704585
sI1
F0.97506093540476013
sI2
F0.51564152180817568
sI3
F0.19968915548372176
sI4
F0.11508480255705904
ssS'dan'
p507
(dp508
I0
F0.22046310611644199
sI1
F0.19457542986038207
sI2
F0.76850517751835823
sI3
F0.15926378454878251
sI4
F0.29717132438589672
ssS'nog'
p509
(dp510
I0
F-0.035161334299536467
sI1
F0.13931894206090603
sI2
F0.97159291956018168
sI3
F-0.10761136007076491
sI4
F0.75886451006382083
ssS'docu'
p511
(dp512
I0
F0.71899133181370889
sI1
F0.31122094154193797
sI2
F0.9587596696766254
sI3
F0.64487593041400204
sI4
F0.57385518386908996
ssS'kist'
p513
(dp514
I0
F0.24750101797021587
sI1
F0.30931849143918211
sI2
F0.37869751093175436
sI3
F0.16962732451595147
sI4
F0.44873007238148627
ssS'staan'
p515
(dp516
I0
F0.301067189642166
sI1
F0.98630598838630934
sI2
F0.92821633243523738
sI3
F0.33799760406733548
sI4
F0.91979440522560174
ssS'das'
p517
(dp518
I0
F0.142903516579658
sI1
F0.35255750264888619
sI2
F0.12195061404710553
sI3
F0.13184432102463461
sI4
F0.64338336446260525
ssS'komende'
p519
(dp520
I0
F0.33775736390852912
sI1
F0.56493027609101243
sI2
F0.11312689162160941
sI3
F1.0274913260829035
sI4
F0.91101887195164277
ssS'gerschtanowitz'
p521
(dp522
I0
F-0.097034041295465445
sI1
F0.83018420025364392
sI2
F0.018578895559449218
sI3
F0.91115672160860073
sI4
F0.87140784587769315
ssS'hippies'
p523
(dp524
I0
F0.61094265690594474
sI1
F0.61804110438652848
sI2
F0.1233183351833749
sI3
F-0.057811826116287671
sI4
F0.36839585984232076
ssS'wereldvreemde'
p525
(dp526
I0
F0.24897241699674832
sI1
F0.96879404749807474
sI2
F0.15211587659564638
sI3
F0.74554829916828547
sI4
F0.41270892513837615
ssS'reactie'
p527
(dp528
I0
F0.27837211469907946
sI1
F-0.016539194591465071
sI2
F0.39439510621521218
sI3
F0.78306190739469272
sI4
F-0.0011905814333347652
ssS'winnaar'
p529
(dp530
I0
F-0.23554937193103653
sI1
F0.83562858839742704
sI2
F0.036260653922372259
sI3
F0.7671290781537814
sI4
F0.041616540594565966
ssS'beperking'
p531
(dp532
I0
F0.48542698423161657
sI1
F0.057198979231533505
sI2
F0.57489243452368155
sI3
F0.80327778568875063
sI4
F0.79079394316121643
ssS'edit'
p533
(dp534
I0
F0.94890144314898217
sI1
F0.38729293433060663
sI2
F0.85544504502425334
sI3
F0.21821861843711207
sI4
F0.5046015397692506
ssS'geblokte'
p535
(dp536
I0
F0.41561276494120414
sI1
F0.52490482519716419
sI2
F1.0050940378474407
sI3
F1.1303837480970766
sI4
F0.52577918127998535
ssS'liefdesdans'
p537
(dp538
I0
F0.70198542865087121
sI1
F0.52061621027102056
sI2
F0.29880583000467703
sI3
F0.071253198251153255
sI4
F0.94724278486398394
ssS'rocks'
p539
(dp540
I0
F1.0770385963253424
sI1
F0.95082831185638805
sI2
F0.56308825797748208
sI3
F0.23083041881606234
sI4
F0.86310171782563871
ssS'buurvrouw'
p541
(dp542
I0
F0.072528856789758664
sI1
F0.12725506077639717
sI2
F0.40086125530595562
sI3
F-0.15214840488830908
sI4
F0.18617697976131473
ssS'kipje'
p543
(dp544
I0
F1.2092503472116245
sI1
F0.79989712653955636
sI2
F-0.1418734692026786
sI3
F0.039080024591040853
sI4
F0.45392487209511334
ssS'whahaha'
p545
(dp546
I0
F0.48330028705833311
sI1
F0.68157628414460525
sI2
F0.40213698381177876
sI3
F1.1536623167643332
sI4
F0.12119234538935353
ssS'januari'
p547
(dp548
I0
F-0.15245738534102488
sI1
F0.19325263605467277
sI2
F0.20644619639565687
sI3
F0.94701112155974909
sI4
F0.55195559792188598
ssS'eo'
p549
(dp550
I0
F0.48000112383011223
sI1
F-0.020332608603125704
sI2
F-0.53859902999979381
sI3
F-0.55516154088311387
sI4
F0.55068798211845948
ssS'publiekeomroep'
p551
(dp552
I0
F0.26895182312822591
sI1
F0.83051073407133069
sI2
F0.85369103610850583
sI3
F0.79340301418121861
sI4
F0.42282260322819271
ssS'ee'
p553
(dp554
I0
F0.87437239163407909
sI1
F0.65364381574594288
sI2
F0.80764089911570547
sI3
F0.93646501980612684
sI4
F0.31849174310232115
ssS'idee'
p555
(dp556
I0
F1.1769043230341059
sI1
F0.34309140064949528
sI2
F0.57401271528019426
sI3
F0.22674547488502209
sI4
F0.11389945996749186
ssS'mijn'
p557
(dp558
I0
F-0.040477114125837682
sI1
F0.84395141312159538
sI2
F0.50166359991317677
sI3
F0.24293352448255412
sI4
F-0.0020082552048981202
ssS'bedoornbos'
p559
(dp560
I0
F0.74594975140004049
sI1
F0.22733517061920713
sI2
F0.29902838229167955
sI3
F0.8384197627468537
sI4
F0.52083325956714133
ssS'kijkenahzielighooriksteeds'
p561
(dp562
I0
F-0.13271166556688924
sI1
F0.27207027381913901
sI2
F0.94764965927609646
sI3
F0.92065076824673864
sI4
F0.54756349849436703
ssS'oud'
p563
(dp564
I0
F-0.36667166675746593
sI1
F0.38881351029123262
sI2
F0.38021709597825631
sI3
F0.72185818994713891
sI4
F0.79717113616213342
ssS'bende'
p565
(dp566
I0
F0.1452352951591348
sI1
F0.62942705585828329
sI2
F0.64954173517151959
sI3
F0.89490998454402881
sI4
F0.54112252262523175
ssS'ex'
p567
(dp568
I0
F0.53985970847265563
sI1
F0.55281074523828577
sI2
F0.20567014532096456
sI3
F0.16012058807644536
sI4
F0.95062571797102691
ssS'ons'
p569
(dp570
I0
F-0.069018861537729528
sI1
F0.54975943560332774
sI2
F0.74325385494834773
sI3
F0.62906284995762252
sI4
F0.71934797747258328
ssS'alweer'
p571
(dp572
I0
F-0.031671513101899099
sI1
F0.12282313318398651
sI2
F0.9182019326330364
sI3
F0.12061864267220784
sI4
F0.44049877735519227
ssS'logo'
p573
(dp574
I0
F0.95450590028365989
sI1
F0.042146904120648837
sI2
F0.52062985814300367
sI3
F-0.17805782764527289
sI4
F0.32565839435148725
ssS'kant'
p575
(dp576
I0
F0.71924664825953721
sI1
F0.41715244406543694
sI2
F0.7321765935797081
sI3
F0.37478727345018803
sI4
F0.49493803754310678
ssS'waardevolle'
p577
(dp578
I0
F0.39141466207180997
sI1
F0.73446854460415667
sI2
F0.16462230013987997
sI3
F0.77625790523088978
sI4
F0.7061841815747758
ssS'special'
p579
(dp580
I0
F-0.064974904630819313
sI1
F0.91409843668837976
sI2
F0.77046553556340003
sI3
F0.15219079400080676
sI4
F0.8649014328861655
ssS'er'
p581
(dp582
I0
F-0.54798949145113929
sI1
F0.32783804025387375
sI2
F1.1653861269419656
sI3
F1.398171762760158
sI4
F-0.013903274491414735
ssS'kids'
p583
(dp584
I0
F0.24191002705195677
sI1
F0.056436948313150381
sI2
F0.42373791842346559
sI3
F0.16994458388639569
sI4
F0.72401504924383886
ssS'god'
p585
(dp586
I0
F0.88041238500253682
sI1
F0.59925874335555096
sI2
F-0.088875944757139655
sI3
F0.19415752357514621
sI4
F0.54954874958494648
ssS'pelikanen'
p587
(dp588
I0
F1.0443946243644628
sI1
F1.0283054821476465
sI2
F0.80641047172242242
sI3
F0.37220888569974814
sI4
F0.27974467606814724
ssS'lezer'
p589
(dp590
I0
F0.56806857726497817
sI1
F0.28643423740139606
sI2
F0.10812300299653668
sI3
F0.6005700848674439
sI4
F0.82504122611674369
ssS'ontspanning'
p591
(dp592
I0
F0.65957874456960375
sI1
F0.23457380942905481
sI2
F0.47811601471934873
sI3
F0.16056763143769431
sI4
F0.17498768997350503
ssS'waar'
p593
(dp594
I0
F0.5066277957246631
sI1
F0.21813621761479113
sI2
F0.36260442984877128
sI3
F0.25344676035018399
sI4
F0.50190198624700544
ssS'evangelische'
p595
(dp596
I0
F0.660501727476976
sI1
F0.74622475035749092
sI2
F0.37717729381113496
sI3
F0.66717051608628319
sI4
F0.71256146977904866
ssS'max'
p597
(dp598
I0
F0.05831033313543333
sI1
F0.06982281035736583
sI2
F0.70734633670764191
sI3
F0.81733264600979649
sI4
F0.30920637592900624
ssS'stuk'
p599
(dp600
I0
F0.24266904694815442
sI1
F0.25375311921185428
sI2
F0.81269306929445428
sI3
F1.0807280033541082
sI4
F0.73828014351645954
ssS'brabantia'
p601
(dp602
I0
F0.31481427605277518
sI1
F0.97572727826875105
sI2
F0.56587507143040949
sI3
F0.28063922632881083
sI4
F0.36900668505525808
ssS'highway'
p603
(dp604
I0
F0.16180091336284666
sI1
F0.17468830213662412
sI2
F0.025091481285152272
sI3
F0.92531653771820221
sI4
F0.41260087045176869
ssS'oude'
p605
(dp606
I0
F0.38146331637989556
sI1
F0.7169635443216571
sI2
F0.12295140549030277
sI3
F0.2396952681748829
sI4
F0.29931988622570926
ssS'belangrijke'
p607
(dp608
I0
F0.056444471222955823
sI1
F0.71659750144037926
sI2
F0.13828273929782395
sI3
F0.52665929822239199
sI4
F0.0024487663530206719
ssS'normen'
p609
(dp610
I0
F0.7189171225711839
sI1
F0.36828784311849921
sI2
F0.68469244621759318
sI3
F0.55787730125863166
sI4
F0.21121805184030223
ssS'vroeg'
p611
(dp612
I0
F0.10735060213985576
sI1
F0.37596342568562258
sI2
F0.89088161845838965
sI3
F0.58696261072099509
sI4
F0.11819444598870102
ssS'tegenwicht'
p613
(dp614
I0
F0.95355493178254025
sI1
F0.37609927313648289
sI2
F0.61205467167330996
sI3
F0.51376974934156894
sI4
F0.59163979282881929
ssS'gericht'
p615
(dp616
I0
F0.20578442197470354
sI1
F0.78060064944975815
sI2
F0.25628091590846358
sI3
F0.35237983623476032
sI4
F0.033461697129339774
ssS'vier'
p617
(dp618
I0
F0.066943587167877946
sI1
F0.61335172704590657
sI2
F0.13425705606476027
sI3
F0.81057213788522831
sI4
F0.20002008661313572
ssS'privacy'
p619
(dp620
I0
F0.30706989294021486
sI1
F0.086605309326984001
sI2
F0.67152738571664783
sI3
F1.1846157653607914
sI4
F0.47389440293066604
ssS'keer'
p621
(dp622
I0
F0.72966910039248933
sI1
F0.38086980753494626
sI2
F0.92475082983503842
sI3
F-0.18760366488483379
sI4
F0.23589698165829329
ssS'keek'
p623
(dp624
I0
F0.18480229048875282
sI1
F0.17215762579037622
sI2
F-0.003422285093325986
sI3
F0.013068218721367561
sI4
F0.91296947423268726
ssS'morgenochtend'
p625
(dp626
I0
F0.33292602234636837
sI1
F0.15139178959221825
sI2
F0.20419062728256626
sI3
F-0.29652125622155884
sI4
F0.053078081772800031
ssS'geloof'
p627
(dp628
I0
F-0.092248776118073889
sI1
F0.10003030222698138
sI2
F0.38716998781402362
sI3
F0.4709961703231742
sI4
F0.7275106605193925
ssS'heftige'
p629
(dp630
I0
F0.85114652002412217
sI1
F0.86367983952880534
sI2
F0.42116873258840676
sI3
F0.16111054171352068
sI4
F0.50170673939881338
ssS'ding'
p631
(dp632
I0
F0.6579717948300069
sI1
F0.39427668863025722
sI2
F0.58995890933155526
sI3
F0.5215197796812473
sI4
F0.39266547923292933
ssS'zal'
p633
(dp634
I0
F0.098687669091447328
sI1
F0.74511502137157981
sI2
F0.80974140575476272
sI3
F0.76306621659958063
sI4
F0.59919459574044132
ssS'drinken'
p635
(dp636
I0
F0.29619725502335476
sI1
F0.02382650062757213
sI2
F0.67544623130667458
sI3
F0.77663447007769126
sI4
F0.48049875630869787
ssS'mag'
p637
(dp638
I0
F0.36148054679277852
sI1
F0.61584273372999443
sI2
F0.39678118208714391
sI3
F1.4643566629152769
sI4
F-0.066539830778331352
ssS'hoor'
p639
(dp640
I0
F1.0028662488430617
sI1
F0.17476382565825543
sI2
F0.15752116535095273
sI3
F-0.2261531094194863
sI4
F0.59964659376285789
ssS'zag'
p641
(dp642
I0
F-0.2361368652682779
sI1
F0.72847506151578578
sI2
F0.69003141506578081
sI3
F0.66674659742061471
sI4
F0.82496462881664434
ssS'xd'
p643
(dp644
I0
F0.36419690903631768
sI1
F0.54669031053872286
sI2
F0.7377430143369974
sI3
F0.6316328686846796
sI4
F0.55248248996982463
ssS'geschapen'
p645
(dp646
I0
F0.67554850075841633
sI1
F0.60850803147836274
sI2
F0.69268277432343572
sI3
F-0.07459721635847065
sI4
F0.059982138802117314
ssS'hahahaha'
p647
(dp648
I0
F0.98219066752773454
sI1
F1.0176632501307779
sI2
F-0.14511791971541577
sI3
F0.18821437874877242
sI4
F0.44577633456749499
ssS'echt'
p649
(dp650
I0
F0.51675388573755932
sI1
F0.63704664684131462
sI2
F-0.026862079978480499
sI3
F0.0089192690129133341
sI4
F0.98167737022775547
ssS'mirjamspeeltvals'
p651
(dp652
I0
F1.0374510999056468
sI1
F0.32130539896627841
sI2
F0.84288330530945021
sI3
F-0.46771172884486811
sI4
F0.4302066820294046
ssS'natuurlijk'
p653
(dp654
I0
F0.70040480284033502
sI1
F0.55408819539123644
sI2
F0.45855872120576774
sI3
F1.168936627716904
sI4
F0.76678816871372624
ssS'ijsberen'
p655
(dp656
I0
F0.56657476267281881
sI1
F0.8125313565765987
sI2
F0.035439337775332098
sI3
F0.78588662041872026
sI4
F0.84863022167366231
ssS'hoog'
p657
(dp658
I0
F0.62995854134425422
sI1
F0.60381325668479802
sI2
F0.099160246483532208
sI3
F0.95175480032324966
sI4
F0.52514608033096966
ssS'kutomroep'
p659
(dp660
I0
F0.61252551852665471
sI1
F0.47246865396482501
sI2
F0.060844893366787375
sI3
F0.2097355583990434
sI4
F0.16952194142193747
ssS'pedofielen'
p661
(dp662
I0
F0.36563428537167997
sI1
F0.5882233373450001
sI2
F0.037526955607271414
sI3
F0.54172974252682859
sI4
F0.35846073858040478
ssS'weke'
p663
(dp664
I0
F0.88272089735069847
sI1
F0.15312092313992579
sI2
F0.46035174455059746
sI3
F0.25206969462898754
sI4
F0.82585185207057354
ssS'radioprogramma'
p665
(dp666
I0
F0.10461063629319592
sI1
F0.49253172453125615
sI2
F0.34006953943647628
sI3
F0.67764924208364352
sI4
F0.94256359934579548
ssS'twaalf'
p667
(dp668
I0
F0.26447638330146184
sI1
F0.21023973501922003
sI2
F-0.03118026764977147
sI3
F-0.23987608082283998
sI4
F0.7551715790832243
ssS'tegelijkertijd'
p669
(dp670
I0
F0.51375080318293687
sI1
F0.15993032208134453
sI2
F-0.00897935193844881
sI3
F0.018467254911879016
sI4
F0.51606507739452301
ssS'2'
(dp671
I0
F1.3320750079377404
sI1
F1.011798090718806
sI2
F0.13092862564795474
sI3
F-0.11797362807701789
sI4
F-0.37959589801092486
ssS'zelfs'
p672
(dp673
I0
F0.57760491869830022
sI1
F0.15707470741770366
sI2
F0.083411099171523478
sI3
F0.5522966702234372
sI4
F0.48015444148689368
ssS'honden'
p674
(dp675
I0
F0.63363571335358837
sI1
F0.16307411258101162
sI2
F0.13885547884841232
sI3
F1.1515658921694409
sI4
F0.96263788276135254
ssS'genieten'
p676
(dp677
I0
F0.25257256558117841
sI1
F0.78324956693354353
sI2
F0.45007060825683221
sI3
F0.74735102107117357
sI4
F0.85552413019791218
ssS'kop'
p678
(dp679
I0
F-0.033440595882283514
sI1
F0.40223314226352708
sI2
F0.093348760870787126
sI3
F0.75748134701444259
sI4
F0.36368526707214044
ssS'nigeria'
p680
(dp681
I0
F0.10190562957851144
sI1
F0.65112964760724257
sI2
F0.65754770521549222
sI3
F0.28495934551444085
sI4
F0.5109183892685818
ssS'leden'
p682
(dp683
I0
F-0.017349720233026063
sI1
F0.91852609649419426
sI2
F0.14511841933935143
sI3
F0.74823436184224745
sI4
F0.242364433686697
ssS'toe'
p684
(dp685
I0
F0.62394966769968996
sI1
F0.91103318952139412
sI2
F0.71881606072674376
sI3
F0.58848697472873024
sI4
F0.93909434012550119
ssS'paaps'
p686
(dp687
I0
F0.58009413375229113
sI1
F0.4790837256743915
sI2
F0.69408035546432723
sI3
F0.53958010768941234
sI4
F0.2410821851587493
ssS'lot'
p688
(dp689
I0
F0.056305821824657959
sI1
F0.69848637413406489
sI2
F0.72971103111114344
sI3
F0.42470057119103505
sI4
F0.66953280311198027
ssS'bijzonder'
p690
(dp691
I0
F0.066845805120279322
sI1
F0.49091499238036818
sI2
F0.79454200435158961
sI3
F0.83254341757123651
sI4
F0.05918541457543388
ssS'hun'
p692
(dp693
I0
F-0.058429540043367097
sI1
F0.69607547007322368
sI2
F0.34986454329831596
sI3
F0.58063450882992518
sI4
F0.58344534262182557
ssS'achter'
p694
(dp695
I0
F0.38604702057917023
sI1
F0.9580141019103624
sI2
F0.74213576167668904
sI3
F0.77736300420994231
sI4
F0.80664144573653185
ssS'netwerk'
p696
(dp697
I0
F1.1214131012917172
sI1
F0.39974042620822903
sI2
F0.821473456212655
sI3
F0.58726302004828712
sI4
F0.12790142347338029
ssS'gehoop'
p698
(dp699
I0
F0.74297534562647971
sI1
F0.19438967968596205
sI2
F0.21585484320385462
sI3
F0.26893964136885606
sI4
F0.7967037187698397
ssS'pars'
p700
(dp701
I0
F0.44259180567897111
sI1
F0.62531910704471216
sI2
F0.74517976343501269
sI3
F1.0023419872891921
sI4
F0.9045827198880777
ssS'waarden'
p702
(dp703
I0
F0.84156982031503103
sI1
F0.23907167126287848
sI2
F0.55916522819570347
sI3
F-0.11157309238087126
sI4
F0.31901535445122603
ssS'vissen'
p704
(dp705
I0
F0.73084496557889511
sI1
F0.16262276466136133
sI2
F0.29797534372410156
sI3
F0.10031447994185003
sI4
F0.67579780130102074
ssS'binnen'
p706
(dp707
I0
F0.26134682388025388
sI1
F0.53451879657516765
sI2
F0.68287877309714728
sI3
F0.66893869574696996
sI4
F0.019053719445540695
ssS'feestgangersz'
p708
(dp709
I0
F-0.014436009284145427
sI1
F0.66818429124892276
sI2
F0.90847189361641689
sI3
F1.1288571679538153
sI4
F0.63561521403382826
ssS'brengen'
p710
(dp711
I0
F0.65059340156938705
sI1
F0.61840132339419451
sI2
F0.57126333590760103
sI3
F0.9366529130346869
sI4
F0.86145971808836064
ssS'spannend'
p712
(dp713
I0
F0.81750405524745773
sI1
F0.6490625974609433
sI2
F0.64635214124019047
sI3
F0.4600790625578397
sI4
F0.36829009887865749
ssS'bekeken'
p714
(dp715
I0
F0.5107271442670086
sI1
F0.89131256444658369
sI2
F0.50900242638605331
sI3
F0.47499934771703994
sI4
F0.36944315634600172
ssS'zonder'
p716
(dp717
I0
F0.64034120097070024
sI1
F0.34944673359904671
sI2
F0.80246596471811005
sI3
F0.98316852120869269
sI4
F0.37133881874138619
ssS'proefabonnement'
p718
(dp719
I0
F0.85256278115474227
sI1
F0.11218955248226994
sI2
F0.23119972807413133
sI3
F-0.30388554018343999
sI4
F0.87205473375498221
ssS'hoeft'
p720
(dp721
I0
F0.09936896884452831
sI1
F0.25225415373709226
sI2
F0.98073358358967622
sI3
F0.928683520222781
sI4
F0.66170072173647854
ssS'ben'
p722
(dp723
I0
F-0.38929873965783846
sI1
F0.40898758887619513
sI2
F0.40179829458503052
sI3
F0.5078704098242145
sI4
F0.62851769096083587
ssS'jongere'
p724
(dp725
I0
F0.60170895627038867
sI1
F0.94725423283100996
sI2
F0.12610271648050955
sI3
F0.12259217939689455
sI4
F0.85090277328658948
ssS'eodatdanweerwel'
p726
(dp727
I0
F0.64858504245884363
sI1
F0.24171193365379678
sI2
F0.58544667410132267
sI3
F0.2398433974045569
sI4
F0.19605452090389858
ssS'aan'
p728
(dp729
I0
F1.4436586847365809
sI1
F0.53671073165112038
sI2
F0.82907492571668373
sI3
F-0.26653078618136117
sI4
F0.41009012636640524
ssS'feyne'
p730
(dp731
I0
F0.55800790709831694
sI1
F0.56798530656732893
sI2
F0.2288207096888529
sI3
F0.87782582646122242
sI4
F0.9665335915244252
ssS'telefoonterreur'
p732
(dp733
I0
F0.25533935378610029
sI1
F0.66971389260081604
sI2
F0.15412086413281839
sI3
F-0.17688850158355993
sI4
F0.48256221680453265
ssS'gevloekt'
p734
(dp735
I0
F0.58204182440802854
sI1
F0.9652449656494444
sI2
F0.64462582429076065
sI3
F0.4489211042626281
sI4
F0.59228179074173004
ssS'dank'
p736
(dp737
I0
F0.45168706285184812
sI1
F0.84558067417293203
sI2
F0.73952896297242854
sI3
F0.23211685322448522
sI4
F0.79010935819245109
ssS'juicht'
p738
(dp739
I0
F-0.0099720603018221762
sI1
F0.33814161176813901
sI2
F0.27608541305013018
sI3
F0.4116073823501511
sI4
F0.74513441237425893
ssS'dtv'
p740
(dp741
I0
F-0.050554677094636062
sI1
F0.3856189323304916
sI2
F0.55806367443283966
sI3
F0.19485602862169021
sI4
F0.22005931233194623
ssS'beter'
p742
(dp743
I0
F0.54234907227871232
sI1
F0.1914452010668907
sI2
F0.66623377579574006
sI3
F0.89417057141478495
sI4
F0.042620507858693354
ssS'vijf'
p744
(dp745
I0
F0.14775979727944669
sI1
F0.85377097941785929
sI2
F0.3129402398667403
sI3
F0.18751721755973452
sI4
F0.93899169633546797
ssS'alles'
p746
(dp747
I0
F0.50693217747051333
sI1
F0.91514087197701854
sI2
F0.069137738844773478
sI3
F-0.28524922145886034
sI4
F0.062718701551550751
ssS'feest'
p748
(dp749
I0
F-0.052896914864502029
sI1
F0.14199277612450334
sI2
F0.37440712764908429
sI3
F0.89997805986038371
sI4
F0.60905922298796111
ssS'reportages'
p750
(dp751
I0
F0.61720598238109436
sI1
F0.53814303817188902
sI2
F0.80236844636640181
sI3
F0.28180091957430209
sI4
F0.97256175122323807
ssS'neem'
p752
(dp753
I0
F0.54333556654248449
sI1
F0.15290913865787076
sI2
F0.84403261058264789
sI3
F0.69053116689192073
sI4
F0.89673096236026451
ssS'8bahn'
p754
(dp755
I0
F-0.03650366457429545
sI1
F0.56250663360967823
sI2
F0.52506400148001942
sI3
F0.40033346328456842
sI4
F0.50194072423271541
ssS'katholiek'
p756
(dp757
I0
F0.74264022667340102
sI1
F0.11560091675552145
sI2
F-0.035067224903542651
sI3
F-0.076868244307283687
sI4
F0.93972501102829076
ssS'onze'
p758
(dp759
I0
F0.74920999307539538
sI1
F0.93912599534658991
sI2
F0.79944920522916274
sI3
F0.24539225735017825
sI4
F0.92423963922275565
ssS'hoogst'
p760
(dp761
I0
F0.56818793416700453
sI1
F0.33901837639165461
sI2
F0.53636466288677465
sI3
F0.67513072457205781
sI4
F0.47798279318335302
ssS'allemaal'
p762
(dp763
I0
F0.33832033611495227
sI1
F0.4706177057010823
sI2
F0.1790306564342381
sI3
F0.33117224744110757
sI4
F0.28967598804728739
ssS'xf3'
p764
(dp765
I0
F-0.14418381897297494
sI1
F0.11898698142402767
sI2
F0.23660557439172902
sI3
F1.1293949079161205
sI4
F0.2437122438004756
ssS'werken'
p766
(dp767
I0
F0.3376827104471769
sI1
F0.46617877893638032
sI2
F0.27142678131651937
sI3
F1.213293356479938
sI4
F0.41685123577499
ssS'lid'
p768
(dp769
I0
F1.3929576382547004
sI1
F0.43740528567533049
sI2
F0.62587075093297129
sI3
F-0.14939991465853289
sI4
F1.0352426592433321
ssS'prijs'
p770
(dp771
I0
F0.1288379636602032
sI1
F0.59644830667481696
sI2
F0.80848972817898357
sI3
F0.41816921116220268
sI4
F0.027881495935119557
ssS'schrijnend'
p772
(dp773
I0
F0.97379817704588501
sI1
F0.020119163838846592
sI2
F0.7423463100919715
sI3
F0.27086415847475137
sI4
F0.91466094386369912
ssS'kansloze'
p774
(dp775
I0
F0.18656059306826636
sI1
F0.85921604547517938
sI2
F0.080413552389715662
sI3
F0.14370147667237801
sI4
F0.65836410266889178
ssS'christelijke'
p776
(dp777
I0
F0.27144749296958282
sI1
F0.96335581066149989
sI2
F0.55600060491904302
sI3
F0.97176769648955863
sI4
F0.46316109931027266
ssS'zon'
p778
(dp779
I0
F0.56437198989174608
sI1
F0.66376409849675599
sI2
F0.48774281217626991
sI3
F0.4404403289459532
sI4
F0.17819483068742167
ssS'gevraagd'
p780
(dp781
I0
F-0.27071365129701519
sI1
F0.29108882920838558
sI2
F0.57687712296244298
sI3
F0.32189570413245033
sI4
F0.18078940091901166
ssS'mix'
p782
(dp783
I0
F0.451016886756193
sI1
F0.59798242705775506
sI2
F0.24900805538730272
sI3
F0.32832827303027873
sI4
F0.41462014364778593
ssS'henny'
p784
(dp785
I0
F0.62909509844890321
sI1
F0.46495057353514324
sI2
F0.83522026625777002
sI3
F0.53813302785242012
sI4
F0.94060894019463182
ssS'zou'
p786
(dp787
I0
F0.60682832534536779
sI1
F0.44046922318410625
sI2
F0.011625672894694808
sI3
F0.21998464953742786
sI4
F0.25097809965771728
ssS'oplossing'
p788
(dp789
I0
F-0.0028969309693181807
sI1
F0.92337669220683027
sI2
F0.771135875767753
sI3
F0.6546730466068319
sI4
F0.37589086735593957
ssS'mis'
p790
(dp791
I0
F0.79179004327515856
sI1
F0.31856223033374248
sI2
F0.93264005235340908
sI3
F0.17072638903897958
sI4
F0.17203377218122973
ssS'gmail'
p792
(dp793
I0
F0.16947886661174411
sI1
F0.56781422128257109
sI2
F0.84890171107543955
sI3
F0.89762165580013875
sI4
F0.76251962867312284
ssS'kijken'
p794
(dp795
I0
F0.40856788022245821
sI1
F0.10336814245306393
sI2
F0.51752233029098282
sI3
F0.64231080472491797
sI4
F0.55990446245524317
ssS'jaar'
p796
(dp797
I0
F-1.016306961470723
sI1
F0.91528192595103341
sI2
F0.41423302881588414
sI3
F1.0537432683174426
sI4
F0.85613619616409542
ssS'zeker'
p798
(dp799
I0
F0.88444123323038948
sI1
F0.37512310900428192
sI2
F0.9736080090063105
sI3
F0.93011687539750632
sI4
F0.95246273916685331
ssS'aarde'
p800
(dp801
I0
F0.74018638505375167
sI1
F0.54138109495337705
sI2
F0.9451938888218443
sI3
F0.21960933757345774
sI4
F0.80240844350996032
ssS'deens'
p802
(dp803
I0
F0.35488625660513995
sI1
F0.78716132251473048
sI2
F0.4748006952460056
sI3
F0.43558115376958156
sI4
F0.53517594694867243
ssS'daarna'
p804
(dp805
I0
F0.063650036451021727
sI1
F0.25065275105451973
sI2
F0.39255941355465918
sI3
F0.18941853098345154
sI4
F0.2464979944848458
ssS'zender'
p806
(dp807
I0
F0.13304853077408402
sI1
F0.74463252843058614
sI2
F0.11653297923716451
sI3
F0.76992516354759799
sI4
F0.86535432742640006
ssS'vloek'
p808
(dp809
I0
F0.96636671399731167
sI1
F0.13426458733874971
sI2
F0.27789524738717719
sI3
F-0.069889472946539771
sI4
F0.11201450920254914
ssS'evolutietheorie'
p810
(dp811
I0
F0.24093240950060893
sI1
F0.35529033231510482
sI2
F0.52969966291569581
sI3
F-0.23652070399349809
sI4
F0.11467172711559834
ssS'gewaardeerd'
p812
(dp813
I0
F0.048512782058577349
sI1
F0.50614202482970605
sI2
F0.040672729251074104
sI3
F0.59275769048436633
sI4
F0.69574920368997673
ssS'duivel'
p814
(dp815
I0
F0.34638476228192849
sI1
F0.33004220034405829
sI2
F0.31202036810981792
sI3
F0.071973991823728573
sI4
F0.62979392409780832
ssS'net'
p816
(dp817
I0
F0.38870417351519354
sI1
F0.64655835896171132
sI2
F0.091508731932110801
sI3
F0.057626637375177994
sI4
F0.24476212543572903
ssS'zojuist'
p818
(dp819
I0
F0.98782877797570212
sI1
F0.66149311502160102
sI2
F0.45751569259829922
sI3
F-0.014829461651672442
sI4
F0.70796399163383827
ssS'xe9'
p820
(dp821
I0
F0.43331890503960252
sI1
F0.79505073089527301
sI2
F0.93150488223291206
sI3
F0.8353163793606545
sI4
F0.91004600054284923
ssS'don'
p822
(dp823
I0
F0.70283950508527493
sI1
F0.56249746372365861
sI2
F0.59109136453375577
sI3
F0.25493951581995744
sI4
F0.87025115895217742
ssS'2230'
p824
(dp825
I0
F0.58999672042333129
sI1
F0.61579432951923496
sI2
F0.76304589392889499
sI3
F0.69822155082448678
sI4
F0.49222516693001256
ssS'pieter'
p826
(dp827
I0
F0.66220306994764122
sI1
F0.41378782464041719
sI2
F0.21933036114313326
sI3
F0.66773680970879756
sI4
F0.79778921783362367
ssS'later'
p828
(dp829
I0
F0.1254576174622947
sI1
F0.53725474017987562
sI2
F0.90756433808998394
sI3
F0.17747847929044727
sI4
F0.93341330218053864
ssS'ko'
p830
(dp831
I0
F0.98030499695634521
sI1
F0.088624326581070015
sI2
F0.12017607702551129
sI3
F-0.0079050960564094417
sI4
F0.32519620267439187
ssS'praat'
p832
(dp833
I0
F0.62617821806390195
sI1
F0.23453509119528637
sI2
F0.99077463504419694
sI3
F0.2705856835625523
sI4
F0.54484996966619437
ssS'hulde'
p834
(dp835
I0
F0.89025473112395193
sI1
F0.03239720990627263
sI2
F0.2471689136593693
sI3
F0.28053848540890897
sI4
F0.35015646462853062
ssS'denk'
p836
(dp837
I0
F0.44977121683212939
sI1
F0.82221209741967449
sI2
F0.033579434119309366
sI3
F-0.34037193960594908
sI4
F0.84820052012516156
ssS'oneens'
p838
(dp839
I0
F0.7450486646836264
sI1
F0.048371524385813949
sI2
F0.33035211760373201
sI3
F0.066451857835484462
sI4
F0.23105419239988739
ssS'gesticht'
p840
(dp841
I0
F0.46592297434374996
sI1
F0.5779470703992674
sI2
F0.63552471632722207
sI3
F0.81820255071033521
sI4
F0.015436957342412785
ssS'3js'
p842
(dp843
I0
F0.65086397555088027
sI1
F0.024570059166086445
sI2
F0.9065623717017095
sI3
F0.40953040049506712
sI4
F0.42614993904148041
ssS'raar'
p844
(dp845
I0
F0.50117179264313572
sI1
F0.19476275219156461
sI2
F0.9967768217218409
sI3
F0.60551327268330657
sI4
F0.04835705325748689
ssS'metterdaad'
p846
(dp847
I0
F0.083060194765798664
sI1
F0.75830152608359136
sI2
F0.86325264823181624
sI3
F0.48965667917042355
sI4
F0.57346387659434794
ssS'dijk'
p848
(dp849
I0
F0.23800043992483827
sI1
F0.47347405270111093
sI2
F0.7521110180419267
sI3
F0.70266786250961299
sI4
F0.14763327629380707
ssS'delen'
p850
(dp851
I0
F0.97115172997157462
sI1
F0.64418265115720441
sI2
F0.51164081098232095
sI3
F0.56852876383835582
sI4
F0.088854472920038313
ssS'aanstaande'
p852
(dp853
I0
F0.38489224904144298
sI1
F0.83764866720051434
sI2
F0.65054356493170962
sI3
F0.70656230946864984
sI4
F0.14950540410348939
ssS'heensto'
p854
(dp855
I0
F0.31857215170619591
sI1
F0.64358384767731569
sI2
F0.61661721082936949
sI3
F0.53820985601233051
sI4
F0.72425750300219205
ssS'trouwe'
p856
(dp857
I0
F0.63266498644462843
sI1
F0.2568318169576605
sI2
F0.61091547933617862
sI3
F0.73321587918700737
sI4
F0.71096993244266204
ssS'rtl'
p858
(dp859
I0
F0.57494462953794467
sI1
F0.18136604280762741
sI2
F0.46211154823783168
sI3
F0.13500149291742658
sI4
F0.064803289030414518
ssS'twee'
p860
(dp861
I0
F-0.12106072054863536
sI1
F-0.022490277830726827
sI2
F0.038705520275307423
sI3
F0.80518162760776801
sI4
F0.75670718582406249
ssS'donkere'
p862
(dp863
I0
F0.58235263101785806
sI1
F0.51300062942382207
sI2
F0.29441471233775313
sI3
F-0.1703849014298581
sI4
F0.6852431302322447
ssS'orgelbespeling'
p864
(dp865
I0
F0.28522671405717176
sI1
F0.3601842543044057
sI2
F0.20694931682256421
sI3
F1.0340288556217125
sI4
F0.25917013190603527
ssS'krijgen'
p866
(dp867
I0
F0.31876679544588543
sI1
F0.10208381056406446
sI2
F0.31041378298929367
sI3
F0.94138861361893755
sI4
F0.51238964750565397
ssS'niet'
p868
(dp869
I0
F-0.66546612264156024
sI1
F0.44911061949634085
sI2
F0.48065617803339983
sI3
F0.26981139456259284
sI4
F0.30009970888249088
ssS'zenderco'
p870
(dp871
I0
F0.10456532963034179
sI1
F0.45575235395071156
sI2
F0.25159453699299883
sI3
F0.35991668804090571
sI4
F0.86414396663376336
ssS'linksboven'
p872
(dp873
I0
F0.71821615272904027
sI1
F0.7097542360270338
sI2
F0.0064114811046712961
sI3
F-0.11562581765742397
sI4
F0.68532907507132534
ssS'headliner'
p874
(dp875
I0
F0.63982636054930819
sI1
F0.77254392287772011
sI2
F0.84176133606001879
sI3
F1.2677164584572609
sI4
F0.19108048653731077
ssS'knaap'
p876
(dp877
I0
F0.1480538141310633
sI1
F0.77448799677945368
sI2
F0.1040985042412409
sI3
F0.84477142679130179
sI4
F0.90980738093457159
ssS'zeg'
p878
(dp879
I0
F0.79653606958038414
sI1
F0.20516918038090579
sI2
F-0.021268687958149755
sI3
F0.43924120739579825
sI4
F0.99524957195318386
ssS'daar'
p880
(dp881
I0
F0.9782038048857109
sI1
F0.85959841419327587
sI2
F0.96814073712255577
sI3
F0.26719119592132073
sI4
F0.23309616577087067
ssS'bff'
p882
(dp883
I0
F0.52308281803998713
sI1
F0.093884211495759429
sI2
F0.73469654262041306
sI3
F0.91988013009800285
sI4
F0.5305148883844848
ssS'jay'
p884
(dp885
I0
F0.5666925487743053
sI1
F0.55120063144473086
sI2
F0.589709429093624
sI3
F0.84360792089561432
sI4
F0.67432022014797788
ssS'advertentie'
p886
(dp887
I0
F0.2878315382839835
sI1
F0.68119034809834145
sI2
F0.52559514484437031
sI3
F0.50553721386946182
sI4
F0.95579173418948649
ssS'striptease'
p888
(dp889
I0
F1.3617716115786962
sI1
F0.74897156496385442
sI2
F-0.044676446365231583
sI3
F0.14107572084251274
sI4
F1.0450856903551757
ssS'thema'
p890
(dp891
I0
F0.25815638139984676
sI1
F0.48202811837237858
sI2
F0.86374915982996003
sI3
F0.19759476788615452
sI4
F0.54831610411460896
ssS'sinterklaas'
p892
(dp893
I0
F0.15679123814401008
sI1
F0.025949616525134379
sI2
F0.84737117695038133
sI3
F0.21707826030884517
sI4
F0.46899770938627583
ssS'folder'
p894
(dp895
I0
F0.37470291981761561
sI1
F0.050931852011314574
sI2
F0.89759125715493071
sI3
F0.96322988230394391
sI4
F0.20698288684248789
ssS'doornbos'
p896
(dp897
I0
F0.13128873566424137
sI1
F0.44444675064833933
sI2
F0.95101738527728152
sI3
F0.96428844372307709
sI4
F-0.093412823133992975
ssS'actie'
p898
(dp899
I0
F1.0160087655739647
sI1
F0.0081156217249921878
sI2
F0.76298957235782872
sI3
F0.93273317406119427
sI4
F0.52751212249523705
ssS'x201c'
p900
(dp901
I0
F0.70312802453788414
sI1
F0.51354363399813296
sI2
F0.74952556276551474
sI3
F-0.065087058857918129
sI4
F0.69429893591407865
ssS'toch'
p902
(dp903
I0
F0.34790691769600063
sI1
F0.15819047572103179
sI2
F0.63248590729029197
sI3
F-0.49114132029043822
sI4
F0.65533083841744999
ssS'dj'
p904
(dp905
I0
F0.22198723690781519
sI1
F0.29593641450818609
sI2
F0.1867465528455074
sI3
F0.57663089750451779
sI4
F0.33175854322546039
ssS'aant'
p906
(dp907
I0
F0.84084310138105012
sI1
F0.93511778474703278
sI2
F0.64526761376877806
sI3
F-0.11050076088011015
sI4
F0.92373999065956336
ssS'de'
p908
(dp909
I0
F0.96505778707761658
sI1
F0.15021427953503999
sI2
F0.75381304046278796
sI3
F-0.17252963737090449
sI4
F0.74807108932897637
ssS'ned2'
p910
(dp911
I0
F0.67073461369552201
sI1
F0.92167276441001422
sI2
F0.092136445501714834
sI3
F-0.29282952751036961
sI4
F0.31427265987777664
ssS'toneelstuk'
p912
(dp913
I0
F1.2962694349925454
sI1
F0.13092334792114185
sI2
F0.58920358058287814
sI3
F-0.024262167643584482
sI4
F0.47728090925858846
ssS'wordt'
p914
(dp915
I0
F-0.035561376744349525
sI1
F0.26322605181828862
sI2
F0.31173135002807756
sI3
F0.9695768022480763
sI4
F0.90544670498327806
ssS'12'
p916
(dp917
I0
F0.054924486156246871
sI1
F0.82378896535501367
sI2
F0.7660336912347222
sI3
F0.38958490500329912
sI4
F0.17341526497629853
ssS'geen'
p918
(dp919
I0
F0.40459641496761906
sI1
F0.85610125943243942
sI2
F0.67954134595599813
sI3
F-0.0018108039080872796
sI4
F0.84626455071362883
ssS'128'
p920
(dp921
I0
F0.71703004223563183
sI1
F0.70479567975211621
sI2
F0.083661312651649264
sI3
F0.69281648785136007
sI4
F0.64263953704651022
ssS'reeel'
p922
(dp923
I0
F-0.078441091143840708
sI1
F0.16802935229050145
sI2
F0.61671889151568005
sI3
F0.45495079726630872
sI4
F0.82174717596469693
ssS'politiebureau'
p924
(dp925
I0
F-0.41640512727122836
sI1
F0.48962360522719195
sI2
F1.0800095952626476
sI3
F1.213489375915539
sI4
F0.14482687939314007
ssS'dreigementen'
p926
(dp927
I0
F0.5773611193180811
sI1
F0.61394028100123843
sI2
F0.033215526529399686
sI3
F0.48685973246637149
sI4
F0.94096539207361329
ssS'viervoeter'
p928
(dp929
I0
F0.71755144133369375
sI1
F0.57596059097895891
sI2
F0.84373725575478209
sI3
F0.068324137030155246
sI4
F0.30284528238347791
ssS'zeer'
p930
(dp931
I0
F0.89706865838844507
sI1
F0.70089944168568508
sI2
F0.22351958359878588
sI3
F0.36051329301942492
sI4
F0.5068600061340448
ssS'nagekeken'
p932
(dp933
I0
F0.19296503706791948
sI1
F0.82398266949169818
sI2
F0.64771457720561931
sI3
F0.62931565130317457
sI4
F0.51769636746086778
ssS'kapoentje'
p934
(dp935
I0
F-0.18911377788431977
sI1
F0.11414076092627137
sI2
F0.12350617224516432
sI3
F0.51771882980430084
sI4
F0.82839715756088472
ssS'nieuws_'
p936
(dp937
I0
F0.64738070061555975
sI1
F0.63464948655436804
sI2
F0.60399440414239347
sI3
F0.31137562249987533
sI4
F0.41659608657519204
ssS'h'
(dp938
I0
F0.045966800783977531
sI1
F0.10079992310774129
sI2
F0.68930019794906094
sI3
F0.53181680447666413
sI4
F0.17372311819598321
ssS'leuk'
p939
(dp940
I0
F0.61162972767996904
sI1
F0.28712914798146849
sI2
F0.83411537001474212
sI3
F-0.32922897441678256
sI4
F0.5233610131646842
ssS'kijkcijfers'
p941
(dp942
I0
F0.68810857538406867
sI1
F0.91423367112269383
sI2
F0.18648061101541144
sI3
F-0.10219115318058547
sI4
F0.85806691239098876
ssS'leren'
p943
(dp944
I0
F0.75530602612629438
sI1
F0.3780111651124205
sI2
F0.2167304483448354
sI3
F0.71208282498306397
sI4
F0.61403831204118975
ssS'gospel'
p945
(dp946
I0
F-0.0030747516580628348
sI1
F0.074371689484390907
sI2
F0.81584927140779495
sI3
F0.76159318287131217
sI4
F0.37407951961673308
ssS'iets'
p947
(dp948
I0
F0.28765131842774899
sI1
F0.54312192623017075
sI2
F0.076291143410976189
sI3
F0.65153734439464916
sI4
F0.66086945812782316
ssS'dorenbos'
p949
(dp950
I0
F0.69020934875046869
sI1
F0.53788693054431569
sI2
F0.18804271045429641
sI3
F0.45070020952890105
sI4
F0.46431541512701713
ssS'liefst'
p951
(dp952
I0
F0.70896723339653267
sI1
F0.017930190124815341
sI2
F0.77341749672251536
sI3
F0.61603404074767332
sI4
F0.3964927478280208
ssS'baasjes'
p953
(dp954
I0
F-0.0057610596709456677
sI1
F0.024901603353670362
sI2
F0.067832265330767513
sI3
F0.66150793816093401
sI4
F0.75737579007851918
ssS'smakeloze'
p955
(dp956
I0
F0.099539311043109688
sI1
F0.79265598358178946
sI2
F0.68384650637801703
sI3
F0.23800449205483021
sI4
F0.68294645681230048
ssS'gedaan'
p957
(dp958
I0
F0.12170503327213304
sI1
F0.67705560158295897
sI2
F0.89352051019551648
sI3
F-0.041072083766895993
sI4
F0.37518004097809915
ssS'moeten'
p959
(dp960
I0
F0.56374664899085525
sI1
F0.072801577355462957
sI2
F0.87770182173903921
sI3
F0.82998115116670468
sI4
F0.25228976114512508
ssS'vind'
p961
(dp962
I0
F0.49394504702177056
sI1
F0.10041390917154272
sI2
F0.65631835540970762
sI3
F-0.21904201387680364
sI4
F0.71732587221974808
ssS'moetdatnou'
p963
(dp964
I0
F0.85687259464918109
sI1
F0.9589742953675211
sI2
F0.97389071683096462
sI3
F0.31723473953652198
sI4
F0.33576764705449214
ssS'blijft'
p965
(dp966
I0
F-0.039618783688322917
sI1
F0.5832448219601114
sI2
F0.70364510664652413
sI3
F0.47690787713142624
sI4
F0.85924804783620279
ssS'woensdag'
p967
(dp968
I0
F0.53491505287089136
sI1
F0.64309224216073446
sI2
F0.13378450217723706
sI3
F-0.07283166971304858
sI4
F0.73946481548038845
ssS'mea'
p969
(dp970
I0
F0.24695684012615995
sI1
F0.75645664666773149
sI2
F0.50852983869085311
sI3
F0.66904930425552389
sI4
F0.581475763238258
ssS'kouverdrongendoorwodka'
p971
(dp972
I0
F0.93067350177802743
sI1
F0.77421897474113022
sI2
F0.28135494646491632
sI3
F-0.058811331706196686
sI4
F0.72301329683990501
ssS'best'
p973
(dp974
I0
F0.52726856959090662
sI1
F-0.13113788968986087
sI2
F0.12542329489070822
sI3
F-0.010914689886339672
sI4
F0.37222506218941642
ssS'vanaf'
p975
(dp976
I0
F0.50531454241687701
sI1
F0.92430366775360984
sI2
F0.37201810706930405
sI3
F0.23733736251478318
sI4
F0.39531757634990145
ssS'benieuwd'
p977
(dp978
I0
F0.06086235431236476
sI1
F0.68508055631893494
sI2
F0.71741657513837687
sI3
F0.74749380857126124
sI4
F0.045386998677863701
ssS'vpro'
p979
(dp980
I0
F0.20436624849866747
sI1
F0.28603499940254118
sI2
F0.13460633154362833
sI3
F0.35316184803520623
sI4
F0.42414689945663886
ssS'commentaren'
p981
(dp982
I0
F1.1033718585312429
sI1
F0.05706423938811326
sI2
F-0.04805318797749579
sI3
F0.3217730157765718
sI4
F0.87131689308980476
ssS'klopt'
p983
(dp984
I0
F0.85278566532704825
sI1
F0.67075818947750687
sI2
F0.07200479220348012
sI3
F0.0928673303894334
sI4
F0.65969451911916777
ssS'bias'
p985
(dp986
I0
F4.058065445676883
sI1
F0.60227666556807569
sI2
F0.90573136466546456
sI3
F2.2231104021624981
sI4
F0.8752703341621908
ssS'geregeld'
p987
(dp988
I0
F-0.0067503273203200565
sI1
F0.45834755846088943
sI2
F0.34484499190848233
sI3
F0.38779432655514939
sI4
F0.17564794588792557
ssS'bekendste'
p989
(dp990
I0
F0.47109914774514294
sI1
F0.064830039453871544
sI2
F0.42874270558273558
sI3
F0.68705780787006532
sI4
F0.083273197358903622
ssS'piemel'
p991
(dp992
I0
F1.7059586276874954
sI1
F0.096426574465471593
sI2
F0.25638232265509103
sI3
F-0.40318378631983065
sI4
F0.63062247376257119
ssS'vond'
p993
(dp994
I0
F0.80076182513707383
sI1
F0.018356386753866513
sI2
F0.38217542327939102
sI3
F-0.02732805008735225
sI4
F0.72620903476075194
ssS'omroep'
p995
(dp996
I0
F-0.12672972325262857
sI1
F0.35492085167582238
sI2
F0.75040203663973659
sI3
F0.58476101189284357
sI4
F0.14133142456334491
ssS'ondertussen'
p997
(dp998
I0
F0.078222451170105192
sI1
F0.48842058253386117
sI2
F0.57020627486436881
sI3
F0.55665747109389441
sI4
F0.053235069177772827
ssS'langsgekomen'
p999
(dp1000
I0
F-0.086213712468627593
sI1
F0.96658184191245566
sI2
F0.76615930443765068
sI3
F1.0583475104586046
sI4
F0.30610861432122216
ssS'lekker'
p1001
(dp1002
I0
F0.74389161344046062
sI1
F0.27202657579124495
sI2
F0.38954835384391912
sI3
F0.5085586344676486
sI4
F0.82275149265201386
ssS'we'
p1003
(dp1004
I0
F0.051170443369011914
sI1
F0.56034906176211396
sI2
F1.0011151167287677
sI3
F1.1072929129278273
sI4
F0.0099895642256530026
ssS'kweepeer'
p1005
(dp1006
I0
F0.24732954685412517
sI1
F0.43798421967748136
sI2
F0.65355903200393273
sI3
F0.20779189805362994
sI4
F0.069266787851448117
ssS'filmploeg'
p1007
(dp1008
I0
F0.39082197211163067
sI1
F0.79920781614205094
sI2
F0.62053976706619351
sI3
F0.58422203339959533
sI4
F0.21346199890102785
ssS'zoveel'
p1009
(dp1010
I0
F0.42836443296764892
sI1
F0.58280419038073183
sI2
F0.43549137351493644
sI3
F0.27947956124725054
sI4
F0.46050714274864119
ssS'uur'
p1011
(dp1012
I0
F0.12287443198796465
sI1
F0.47611393674538638
sI2
F0.43599748252031384
sI3
F0.90536787557291676
sI4
F0.65614864813498319
ssS'jongerendag'
p1013
(dp1014
I0
F0.89338624125570276
sI1
F0.26533654191795897
sI2
F0.25403702278699491
sI3
F0.50900186676785852
sI4
F0.57585869320224858
ssS'basisscholen'
p1015
(dp1016
I0
F0.68712741396169807
sI1
F0.028342959601815643
sI2
F0.75398311604757751
sI3
F0.5799928732161248
sI4
F0.82926723324919283
ssS'zsm'
p1017
(dp1018
I0
F0.32039273050692141
sI1
F0.19610411167114822
sI2
F0.73143858073063073
sI3
F0.087253052514059418
sI4
F0.6119574531517632
ssS'bespreekbaar'
p1019
(dp1020
I0
F-0.14402017501756351
sI1
F0.33152630097305402
sI2
F0.022524321016112046
sI3
F0.36018922164725997
sI4
F0.77414417123493529
ssS'veelwijferij'
p1021
(dp1022
I0
F0.01970983071339898
sI1
F0.659548282841801
sI2
F0.48386353587561037
sI3
F0.2303593172133695
sI4
F0.510091952492986
ssS'vertrouwen'
p1023
(dp1024
I0
F0.09114654691302615
sI1
F0.043815482697628728
sI2
F0.77714398516717353
sI3
F0.38611187077796066
sI4
F0.39650273901023209
ssS'ja'
p1025
(dp1026
I0
F0.01875070901402625
sI1
F0.22244963904133644
sI2
F0.11832386526674291
sI3
F1.282450188922535
sI4
F0.42844802132656551
ssS'voornemen'
p1027
(dp1028
I0
F0.10150873892933808
sI1
F0.78762896016181083
sI2
F0.93925037816283352
sI3
F0.1958236344996733
sI4
F0.84914058774409851
ssS'jaren'
p1029
(dp1030
I0
F0.47099727946316444
sI1
F0.44829539522158302
sI2
F0.046920689457155565
sI3
F0.10226468008624572
sI4
F0.95913975753255409
ssS'mond'
p1031
(dp1032
I0
F0.45875476378845931
sI1
F0.10790882096869783
sI2
F0.53595001695165567
sI3
F0.081657789395044977
sI4
F0.6130072718015005
ssS'figuren'
p1033
(dp1034
I0
F-0.089954707880027851
sI1
F0.96821376490211264
sI2
F0.42280433838253062
sI3
F0.95041260924199999
sI4
F0.91860220350181332
ssS'rijk'
p1035
(dp1036
I0
F0.53037434276005813
sI1
F0.55758478459289706
sI2
F0.46611988833774304
sI3
F0.91996276614819916
sI4
F0.89101658172596743
ssS'woensdagavond'
p1037
(dp1038
I0
F-0.0068647064029340897
sI1
F0.13327994916431349
sI2
F0.91054373358479623
sI3
F0.77592844418551343
sI4
F-0.034547628965312556
ssS's'
(dp1039
I0
F-0.0030004473260106051
sI1
F0.77426781534983469
sI2
F0.61120430861194319
sI3
F0.062943438187945469
sI4
F0.30528441797268158
ssS'kunstje'
p1040
(dp1041
I0
F0.50660802906651348
sI1
F0.059335259362062784
sI2
F0.51088632533939793
sI3
F0.72708092756969778
sI4
F0.23305433029019168
ssS'stukje'
p1042
(dp1043
I0
F0.15219640155065856
sI1
F0.59133540132030249
sI2
F0.57359969350853313
sI3
F0.53590673362434538
sI4
F0.27925381282373979
ssS'natasja'
p1044
(dp1045
I0
F0.10502072180431531
sI1
F0.12004158400371834
sI2
F0.88879009606956916
sI3
F1.0224783735425809
sI4
F0.2899964689564013
ssS'kijktip'
p1046
(dp1047
I0
F0.72517497736559311
sI1
F0.11133707950580726
sI2
F0.19380666757219867
sI3
F-0.10072729872009296
sI4
F0.70059281458465661
ssS'veel'
p1048
(dp1049
I0
F0.15961059856089652
sI1
F0.17118569334841857
sI2
F0.33348383996513736
sI3
F0.58502054142541926
sI4
F0.67943124874785754
ssS'magdatwel'
p1050
(dp1051
I0
F0.83466745175872337
sI1
F0.046865424632355226
sI2
F0.45111186113126667
sI3
F0.9504071867019106
sI4
F0.61468142339538057
ssS'medewerkers'
p1052
(dp1053
I0
F0.59075905487173697
sI1
F0.38810551745986893
sI2
F0.77323218355041035
sI3
F0.62003982115674783
sI4
F0.96052743287301778
ssS'x201d'
p1054
(dp1055
I0
F0.8123820604191071
sI1
F0.043751260039387951
sI2
F0.031532026166394639
sI3
F0.14375796323769346
sI4
F0.23939067712897805
ssS'willem'
p1056
(dp1057
I0
F-0.027778819794163519
sI1
F0.62207980914798822
sI2
F0.29350078792894124
sI3
F0.82605648344067872
sI4
F0.74475355177602043
ssS'jammer'
p1058
(dp1059
I0
F0.9006016536098187
sI1
F0.45715808350543602
sI2
F0.074657097306520231
sI3
F-0.33958532568431377
sI4
F0.96450820043451602
ssS'esprit'
p1060
(dp1061
I0
F0.23950045622256452
sI1
F0.094833295091002023
sI2
F0.68532495271597949
sI3
F0.26508503352930635
sI4
F0.83903909600953042
ssS'kijkcijferkanon'
p1062
(dp1063
I0
F0.3197547657225186
sI1
F0.94985061372902269
sI2
F0.90276732838228801
sI3
F0.69104004466315205
sI4
F0.71247130804872671
ssS'ze'
p1064
(dp1065
I0
F-0.36334505043362125
sI1
F-0.12715933257583009
sI2
F0.1708336807936425
sI3
F0.57789086062356665
sI4
F-0.028954384347665549
ssS'schepping'
p1066
(dp1067
I0
F0.44923486955337344
sI1
F0.096959766995245347
sI2
F0.57711290193046716
sI3
F1.5181993043065118
sI4
F0.70682458428345674
ssS'evolutiegerelateerde'
p1068
(dp1069
I0
F1.04846684769931
sI1
F0.67026003964048519
sI2
F0.28238235065828615
sI3
F0.51111746600261021
sI4
F0.034843736160114332
ssS'erbij'
p1070
(dp1071
I0
F-0.2190417984101527
sI1
F0.4360870061271403
sI2
F0.46717848968539366
sI3
F0.9066872612093847
sI4
F0.48810684177242408
ssS'gelderlander'
p1072
(dp1073
I0
F0.51777458653513897
sI1
F0.88290239670940562
sI2
F0.55509734204525341
sI3
F0.80431970450529056
sI4
F0.48054221666370606
ssS'65'
p1074
(dp1075
I0
F0.8484200062314291
sI1
F0.22811995242023472
sI2
F0.34737222112823374
sI3
F0.036660376045370036
sI4
F0.83248189513899284
ssS'2202'
p1076
(dp1077
I0
F0.6620834467481973
sI1
F0.17427645972387343
sI2
F0.064036034590628468
sI3
F0.71396584070583091
sI4
F0.69518498065054402
ssS'snel'
p1078
(dp1079
I0
F0.096013067871161567
sI1
F0.71027746564621075
sI2
F0.65767237260523104
sI3
F0.45396554182351784
sI4
F0.59210677062432482
ssS'afgezien'
p1080
(dp1081
I0
F-0.023813860709513645
sI1
F0.19353176437193895
sI2
F0.14506142781515233
sI3
F0.54221599993079672
sI4
F0.95376962310365143
ssS'zenders'
p1082
(dp1083
I0
F0.92687041286974081
sI1
F0.15041008679443527
sI2
F0.31361852237472759
sI3
F-0.18344559380437975
sI4
F0.21121322105552859
ssS'verwondt'
p1084
(dp1085
I0
F0.30898086314947137
sI1
F0.50796205464988042
sI2
F0.80336101498069035
sI3
F1.1930441200565798
sI4
F0.35731483935504388
ssS'zingen'
p1086
(dp1087
I0
F0.061082494130461865
sI1
F0.12047697821781048
sI2
F0.41226594513133608
sI3
F0.59792630845626027
sI4
F0.56526614086391769
ssS'kerstspecial'
p1088
(dp1089
I0
F0.41663477522020764
sI1
F0.28695953268759433
sI2
F0.32809963128406233
sI3
F0.86147851760785943
sI4
F0.19795704902659009
ssS'dus'
p1090
(dp1091
I0
F0.13363290862965704
sI1
F0.75576089962033766
sI2
F0.89073269486797146
sI3
F0.4436253598513723
sI4
F0.79047144898176769
ssS'voelt'
p1092
(dp1093
I0
F0.096480058435448643
sI1
F0.85543725285841743
sI2
F0.98230364596103026
sI3
F1.1355438281118433
sI4
F0.84230225442178419
ssS'gefeliciteerd'
p1094
(dp1095
I0
F0.44413492348658035
sI1
F0.056232640338524216
sI2
F0.6018617494710069
sI3
F-0.050890047545255571
sI4
F0.47010611032156024
ssS'website'
p1096
(dp1097
I0
F0.033318052750936349
sI1
F0.23277265106678197
sI2
F0.1717935890731031
sI3
F0.93639380872954359
sI4
F0.86318131323783098
ssS'volgend'
p1098
(dp1099
I0
F0.19517326362094373
sI1
F0.75025642370117585
sI2
F0.55572180372146895
sI3
F0.47101710058599583
sI4
F0.30058262318205459
ssS'helaas'
p1100
(dp1101
I0
F0.30014379519171114
sI1
F0.75153071308321151
sI2
F0.90331462063609991
sI3
F0.035287939500129852
sI4
F0.35591527497921938
ssS'crimineel'
p1102
(dp1103
I0
F0.44000511510025747
sI1
F0.36987932756702002
sI2
F0.62823503910373424
sI3
F0.72882575910351399
sI4
F0.010505176145755994
ssS'druk'
p1104
(dp1105
I0
F-0.015375624975275235
sI1
F0.56821105780997005
sI2
F0.47324072114681814
sI3
F0.41426540427174369
sI4
F0.47108133036966293
ssS'zich'
p1106
(dp1107
I0
F-0.066617207754198604
sI1
F0.9084810939656911
sI2
F0.26711887835102044
sI3
F0.47149638865339422
sI4
F0.96219210974113611
ssS'goede'
p1108
(dp1109
I0
F0.50548764377466815
sI1
F0.075682888841553317
sI2
F0.25019275849463685
sI3
F0.73878584555330429
sI4
F0.74873722556622169
ssS'echte'
p1110
(dp1111
I0
F0.19068797048750497
sI1
F0.95302117042768375
sI2
F0.69617623408895823
sI3
F-0.24656417690763233
sI4
F0.011597639429468527
ssS'mooiste'
p1112
(dp1113
I0
F0.34686818075252795
sI1
F0.17239942774123579
sI2
F0.150189213509133
sI3
F0.0014501670329407743
sI4
F0.66924440897814486
ssS'volgt'
p1114
(dp1115
I0
F0.25083538808523337
sI1
F0.95974839702588033
sI2
F0.93822370400274779
sI3
F0.93478661807579466
sI4
F0.27584503389596893
ssS'volgens'
p1116
(dp1117
I0
F-0.30947717149837689
sI1
F0.92376340925317535
sI2
F0.67892806115639825
sI3
F0.7714863164936262
sI4
F0.026243478679854625
ssS'bravo'
p1118
(dp1119
I0
F0.032667903116275258
sI1
F0.73257272586320676
sI2
F0.12242546703178676
sI3
F-0.14616490833437959
sI4
F0.3705678300555223
ssS'vanavond'
p1120
(dp1121
I0
F0.74699898542293397
sI1
F0.91125801789829897
sI2
F0.56422090869921449
sI3
F-0.24562797442805448
sI4
F0.88988597225560306
ssS'terwijl'
p1122
(dp1123
I0
F1.0393598379511737
sI1
F0.50593953021216209
sI2
F-0.060061902294528867
sI3
F0.26456453073388242
sI4
F0.71780709853266933
ssS'x2019'
p1124
(dp1125
I0
F0.4323874796456571
sI1
F0.33516840166485284
sI2
F0.10482844339716191
sI3
F-0.046970390148853083
sI4
F0.30537695376783125
ssS'boodschap'
p1126
(dp1127
I0
F0.078057406467539378
sI1
F0.8454577201585336
sI2
F2.222124892356288e-05
sI3
F0.59635746676514989
sI4
F0.21436768310218371
ssS'weinig'
p1128
(dp1129
I0
F0.26602238507364095
sI1
F0.76287987036011795
sI2
F0.027998920251311673
sI3
F1.051186037703379
sI4
F0.91274764313754353
ssS'top2000'
p1130
(dp1131
I0
F-0.26867568701782979
sI1
F0.82877205964404055
sI2
F0.98812968145137015
sI3
F0.80010393129618895
sI4
F0.84617199449575253
ssS'vandaag'
p1132
(dp1133
I0
F0.34113134820520047
sI1
F0.92494440865033878
sI2
F0.59494723703712815
sI3
F1.0757124826243407
sI4
F0.34604405118435166
ssS'misplaatste'
p1134
(dp1135
I0
F0.45796129091421928
sI1
F0.55172716536863187
sI2
F0.34510053921158584
sI3
F0.21071834881524157
sI4
F0.89799832188191531
ssS'wilt'
p1136
(dp1137
I0
F0.31578336186197048
sI1
F0.5835057196896275
sI2
F0.099373105839268353
sI3
F0.77896572783372742
sI4
F0.31454269084074132
ssS'2011'
p1138
(dp1139
I0
F-0.25860704421917663
sI1
F-0.093327103790953839
sI2
F0.98394087356790816
sI3
F0.24923958750276981
sI4
F0.53968987546012248
ssS'bevestigen'
p1140
(dp1141
I0
F0.78711005301097758
sI1
F0.8160078110572877
sI2
F0.67518390763268388
sI3
F-0.21647917109921203
sI4
F0.1989716478181921
ssS'harder'
p1142
(dp1143
I0
F0.6347777982173457
sI1
F0.52013244165111772
sI2
F0.33202988755164942
sI3
F0.088794422856990338
sI4
F0.48014190777836419
ssS'as'
p1144
(dp1145
I0
F1.1814524093174839
sI1
F0.51502984330214208
sI2
F0.59146456215396659
sI3
F-0.49248336427160194
sI4
F0.65740074235510482
ssS'n'
(dp1146
I0
F0.7179871969949192
sI1
F0.41365277276300561
sI2
F0.8811195919240169
sI3
F0.39882273847142558
sI4
F0.16503763162753415
ssS'bikini'
p1147
(dp1148
I0
F0.10065701265309566
sI1
F0.87552452813082904
sI2
F0.26730808204967371
sI3
F0.99908338653819084
sI4
F0.29399399717415964
ssS'hahaha'
p1149
(dp1150
I0
F0.3858670141519725
sI1
F0.62813277492763175
sI2
F0.27773130141544394
sI3
F0.31161001534963673
sI4
F0.90397155274122254
ssS'mariska'
p1151
(dp1152
I0
F0.6877222764332902
sI1
F0.68548171503644584
sI2
F0.34079624434108591
sI3
F-0.29254417971012253
sI4
F0.94861224073243289
ssS'reclames'
p1153
(dp1154
I0
F0.64209275314447167
sI1
F0.6929892160164518
sI2
F0.77179899174067945
sI3
F0.31741914218528816
sI4
F0.93100705889021262
ssS'hidden3'
p1155
(dp1156
I0
F-8.9455319000639477
ssS'hidden2'
p1157
(dp1158
I0
F-1.3549405349339843
ssS'hidden1'
p1159
(dp1160
I0
F2.2144046253315639
ssS'hidden0'
p1161
(dp1162
I0
F7.5122128106394683
ssS'10000'
p1163
(dp1164
I0
F0.16748099663005181
sI1
F0.90579537176372149
sI2
F0.47011199517849811
sI3
F0.33842150718685193
sI4
F0.85890408406163155
ssS'hidden5'
p1165
(dp1166
I0
F0.35705200163065148
ssS'hidden4'
p1167
(dp1168
I0
F2.9415073557081444
ssS'vol'
p1169
(dp1170
I0
F0.20609316296536909
sI1
F0.60165340832823377
sI2
F0.98254535762221007
sI3
F0.34707912387275291
sI4
F0.88761264604490719
ssS'is'
p1171
(dp1172
I0
F0.21376912859607275
sI1
F0.39186014324900659
sI2
F0.61334105363666414
sI3
F0.85336972319413673
sI4
F0.2193753259048524
ssS'koffiekoffietijd'
p1173
(dp1174
I0
F-0.085672570201207762
sI1
F0.14199862073011818
sI2
F0.32096798406833377
sI3
F0.9260342085003429
sI4
F0.54701533822281256
ssS'afwachten'
p1175
(dp1176
I0
F0.45091708316287132
sI1
F0.61768183087441275
sI2
F0.57933273903958593
sI3
F0.63212811964370108
sI4
F0.7742270677461397
ssS'enge'
p1177
(dp1178
I0
F0.72254978256937119
sI1
F0.76955851038188627
sI2
F0.20707342065360659
sI3
F-0.1685529695242951
sI4
F0.87283004970871647
ssS'inclusief'
p1179
(dp1180
I0
F0.3232932156006757
sI1
F0.70040576144946753
sI2
F0.53570992924405791
sI3
F1.2113132136123232
sI4
F0.32916419941598613
ssS'totaal'
p1181
(dp1182
I0
F0.56632752786745255
sI1
F-0.031657650839236856
sI2
F0.61180920917542314
sI3
F1.0375682046146819
sI4
F0.24771471984586235
ssS'wauw'
p1183
(dp1184
I0
F1.0474115854121848
sI1
F0.098947617962174661
sI2
F0.14830971405982313
sI3
F0.043454542461536134
sI4
F0.71944800896309713
ssS'ie'
p1185
(dp1186
I0
F0.38345231993091994
sI1
F0.73997543298398682
sI2
F0.82593537856200272
sI3
F0.8666047521025575
sI4
F0.73502358737221996
ssS'blijesmiley'
p1187
(dp1188
I0
F-0.35597397510923456
sI1
F0.042892417876879016
sI2
F0.24322207475302629
sI3
F1.3627837949293382
sI4
F0.29797023031419012
ssS'hond'
p1189
(dp1190
I0
F0.38137254684327243
sI1
F0.7710346224562844
sI2
F0.62334686739151834
sI3
F0.44164600143941513
sI4
F0.55062122283854076
ssS'pas'
p1191
(dp1192
I0
F0.28824486936012472
sI1
F0.69786281742445277
sI2
F0.027896742835968449
sI3
F0.34415142567174012
sI4
F0.83449203322538257
ssS'fotos'
p1193
(dp1194
I0
F0.057180429463203106
sI1
F0.093854447917437619
sI2
F0.22206379567909582
sI3
F0.35953153279962785
sI4
F0.91484893748966056
ssS'kunstsector'
p1195
(dp1196
I0
F-0.14890360583352202
sI1
F0.2534301648768994
sI2
F0.33056121291116036
sI3
F0.83133094674650387
sI4
F0.90540426682872899
ssS'check'
p1197
(dp1198
I0
F0.20857662001688182
sI1
F0.67761978997599526
sI2
F0.081093470203958878
sI3
F0.14701312641566705
sI4
F0.39193893578321226
ssS'buyt'
p1199
(dp1200
I0
F0.33058156878164446
sI1
F0.23560495863673109
sI2
F0.98083978839007224
sI3
F0.23642182391898908
sI4
F0.71506011371509115
ssS'niks'
p1201
(dp1202
I0
F0.0013028022657196258
sI1
F0.81454964552384634
sI2
F0.42080586966703043
sI3
F0.86602610701469018
sI4
F0.1865202206919887
ssS'toegetreden'
p1203
(dp1204
I0
F0.079358648521297898
sI1
F0.40676170842532572
sI2
F0.40608373574333123
sI3
F0.87538521872853592
sI4
F0.39286211658480114
ssS'pad'
p1205
(dp1206
I0
F0.30154668706897841
sI1
F0.72026942748034173
sI2
F0.1530213088725578
sI3
F0.80886554594751703
sI4
F0.28527957718489971
ssS'fles'
p1207
(dp1208
I0
F0.65620510850328895
sI1
F0.62616885742223793
sI2
F0.69389548583428418
sI3
F0.54242655640769433
sI4
F0.29731712343200922
ssS'sfeerbeelden'
p1209
(dp1210
I0
F0.94862101456511916
sI1
F0.2888095579643909
sI2
F0.58472337241932448
sI3
F0.10353749513329455
sI4
F0.21363408705725917
ssS'bijbellezers'
p1211
(dp1212
I0
F0.50058186312033581
sI1
F0.60131392460789657
sI2
F0.39725872686431973
sI3
F0.65053421843439452
sI4
F0.80857472311322609
ssS'ndnl'
p1213
(dp1214
I0
F0.79206787577215376
sI1
F0.80656560058648163
sI2
F0.8593307913108944
sI3
F0.44745684029924265
sI4
F0.15178710379410379
ssS'afspraken'
p1215
(dp1216
I0
F-0.33750561756270797
sI1
F0.48703130396215522
sI2
F0.66235216933792462
sI3
F0.8635522945478169
sI4
F0.36830075709431931
ssS'acdc'
p1217
(dp1218
I0
F0.060466873474336005
sI1
F0.68190441954253167
sI2
F0.090971978231059042
sI3
F0.54027362254527234
sI4
F0.40131917795406308
ssS'positieve'
p1219
(dp1220
I0
F0.84631901361474637
sI1
F0.87629753383427922
sI2
F0.62737032605534704
sI3
F0.35674601689878332
sI4
F0.19079461335196249
ssS'joehoe'
p1221
(dp1222
I0
F0.46922095053003626
sI1
F0.45645386670307819
sI2
F0.33660610057612456
sI3
F0.43621768242408526
sI4
F0.25176218079706447
ssS'mij'
p1223
(dp1224
I0
F-0.30683223144563182
sI1
F0.243030508353094
sI2
F0.68718436820093376
sI3
F0.76381556756908575
sI4
F0.83321787192062013
ssS'actueel'
p1225
(dp1226
I0
F0.7531966080618967
sI1
F0.24603188691088887
sI2
F0.036011812001046348
sI3
F0.70610773013039163
sI4
F0.92988640723847715
ssS'weer'
p1227
(dp1228
I0
F-0.22210854165897784
sI1
F0.44879656819633551
sI2
F-0.20319866803684725
sI3
F0.15277456051727259
sI4
F0.63870141878609987
ssS'veldhuizen'
p1229
(dp1230
I0
F-0.19044427477213674
sI1
F0.90125335189579669
sI2
F0.35959081608891713
sI3
F0.96306457156473713
sI4
F0.1241148822415367
ssS'zoekt'
p1231
(dp1232
I0
F0.72462567533578648
sI1
F-0.022871805472187638
sI2
F0.47472719637544381
sI3
F0.37632055340430881
sI4
F0.72610697312726502
ssS'hebben'
p1233
(dp1234
I0
F0.28689048593469324
sI1
F0.80117967976404181
sI2
F0.060773707600494997
sI3
F0.14260536890218481
sI4
F0.29265520515829413
ssS'euro'
p1235
(dp1236
I0
F0.59380296538644251
sI1
F0.15318748121306827
sI2
F-0.08569991539091161
sI3
F0.4573359231004534
sI4
F0.41821492437394936
ssS'televisie'
p1237
(dp1238
I0
F0.6989472806524345
sI1
F0.41551473460963073
sI2
F0.15815556065460185
sI3
F0.44354491881994906
sI4
F0.55820770367811379
ssS'frozen'
p1239
(dp1240
I0
F-0.20435996208162555
sI1
F0.1343204403190118
sI2
F1.0184582977622307
sI3
F1.2711463651180239
sI4
F0.12531940376951067
ssS'presentator'
p1241
(dp1242
I0
F-0.049118727354922773
sI1
F0.11925770137216957
sI2
F0.63704916259586408
sI3
F0.9040463458896103
sI4
F0.99467712865733027
ssS'almere'
p1243
(dp1244
I0
F0.38432504092231151
sI1
F0.80032246066795898
sI2
F0.23366561429423321
sI3
F0.26980846605382197
sI4
F0.080502975784663811
ssS'satirische'
p1245
(dp1246
I0
F0.7654492365534874
sI1
F0.93272931129955383
sI2
F0.075694610179233207
sI3
F0.40531349406001371
sI4
F0.59765544818141314
ssS'haas'
p1247
(dp1248
I0
F0.29526410493390665
sI1
F0.020811121613823858
sI2
F0.9753622745943088
sI3
F0.45636040688973634
sI4
F0.45820523374608663
ssS'slechts'
p1249
(dp1250
I0
F0.59568698738766157
sI1
F0.6653478565504769
sI2
F0.31284974642275992
sI3
F0.34574307540452126
sI4
F0.64519718937404424
ssS'besef'
p1251
(dp1252
I0
F-0.17113783448944858
sI1
F0.20331593519642455
sI2
F0.20761968435926906
sI3
F0.48118137499714525
sI4
F0.07937567188238831
ssS'vrouw'
p1253
(dp1254
I0
F-0.070316985685347028
sI1
F0.099991517778908759
sI2
F0.079317603588292013
sI3
F0.80188580900235307
sI4
F0.49174520166037999
ssS'ned3'
p1255
(dp1256
I0
F0.32139475129757833
sI1
F0.78709276169757869
sI2
F0.46139794400785622
sI3
F0.51489998923529601
sI4
F0.28251931825348647
ssS'beetje'
p1257
(dp1258
I0
F0.77355830936907211
sI1
F0.83754509820753775
sI2
F0.39042942818339454
sI3
F-0.1649597977168393
sI4
F0.43687437031022297
ssS'camerawerk'
p1259
(dp1260
I0
F0.13639272583186385
sI1
F0.51511993248129651
sI2
F0.55791937877166431
sI3
F0.34365034144898771
sI4
F0.71746456006573633
ssS'yey'
p1261
(dp1262
I0
F0.78534214883565634
sI1
F0.21040841519074788
sI2
F-0.043951481961854097
sI3
F0.18902897292956183
sI4
F0.3618027626916081
ssS'not'
p1263
(dp1264
I0
F0.40621754894365025
sI1
F0.26808468219776321
sI2
F0.63503270547366775
sI3
F1.3606562618781386
sI4
F-0.41732946341458932
ssS'jongerendaggevoel'
p1265
(dp1266
I0
F1.016070086582666
sI1
F0.78253877040475772
sI2
F0.20471296621279575
sI3
F0.26850714735592174
sI4
F0.21486493834932102
ssS'anders'
p1267
(dp1268
I0
F0.16085896633652963
sI1
F0.27472029974175133
sI2
F0.60975677315501153
sI3
F-0.14652854136337132
sI4
F0.76443972591448894
ssS'gehad'
p1269
(dp1270
I0
F0.89733732209020589
sI1
F0.20629434651913789
sI2
F0.62472329988690134
sI3
F0.48991138395602074
sI4
F0.76007919428735049
ssS'goedgel'
p1271
(dp1272
I0
F0.1926685580431321
sI1
F0.96428806239713349
sI2
F0.047053909586632137
sI3
F0.72466096913336542
sI4
F0.28381548483252728
ssS'weg'
p1273
(dp1274
I0
F0.17189058131324428
sI1
F0.50496493249232988
sI2
F0.71448433785998289
sI3
F0.16174201500312524
sI4
F0.81260346149844065
ssS'cherry'
p1275
(dp1276
I0
F1.0139685065608899
sI1
F0.71859035583312636
sI2
F0.75203120204076435
sI3
F0.50877556154346915
sI4
F0.5914637089549768
ssS'hoge'
p1277
(dp1278
I0
F1.2951217233845442
sI1
F0.75891220327196396
sI2
F0.41324428104860694
sI3
F-0.073222190810557614
sI4
F0.90641028552698899
ssS'had'
p1279
(dp1280
I0
F0.10843124728755169
sI1
F0.40842434700864833
sI2
F0.13871208114688852
sI3
F0.3918938756653163
sI4
F0.067941667672444694
ssS'wel'
p1281
(dp1282
I0
F-0.13649012758207893
sI1
F0.026976415252624494
sI2
F0.42100240439165643
sI3
F0.83171410787274558
sI4
F0.32013660982218156
ssS'bemoeit'
p1283
(dp1284
I0
F0.093880792153004419
sI1
F0.5193155662276322
sI2
F0.073038519948162614
sI3
F0.73664325504666262
sI4
F0.33055507344814256
ssS'bank'
p1285
(dp1286
I0
F0.038062659689342325
sI1
F0.76443641437795695
sI2
F0.86559512675834993
sI3
F0.6575680796393788
sI4
F0.57713099721123495
ssS'opvoeden'
p1287
(dp1288
I0
F0.89951631830052692
sI1
F0.95842345157062769
sI2
F0.014976864147466585
sI3
F0.8090778360017955
sI4
F0.22274031488460724
ssS'ineens'
p1289
(dp1290
I0
F0.35231444000244982
sI1
F0.90672218799796633
sI2
F0.39051158023108645
sI3
F0.44928029973726047
sI4
F0.062789878024501616
ssS'maanden'
p1291
(dp1292
I0
F0.19803479071587174
sI1
F0.74441364105815311
sI2
F0.64205771674034262
sI3
F0.57088978914049615
sI4
F0.77860929964150261
ssS'vanmorgen'
p1293
(dp1294
I0
F0.54616648999858275
sI1
F0.047338856265025785
sI2
F0.24236976314956635
sI3
F0.28622133030557984
sI4
F0.29723502355416076
ssS'tijd'
p1295
(dp1296
I0
F0.4941522714733948
sI1
F0.39113299487891046
sI2
F0.93562191745509915
sI3
F1.0573561510480241
sI4
F0.60297817798169995
ssS'fascinerend'
p1297
(dp1298
I0
F0.42141997669838038
sI1
F0.21146377247079373
sI2
F0.029881002423414633
sI3
F0.38149450424091186
sI4
F0.39720306099336627
ssS'to'
p1299
(dp1300
I0
F0.53806728757877853
sI1
F0.43852827848292347
sI2
F0.82602212396129049
sI3
F0.25803582281646192
sI4
F0.62913188405277021
ssS'jeugdzorg'
p1301
(dp1302
I0
F0.0075820732130121304
sI1
F0.33556064871682439
sI2
F0.51005055526856513
sI3
F-0.14919876508286944
sI4
F0.68778078326271963
ssS'tsja'
p1303
(dp1304
I0
F0.91386436899712853
sI1
F0.6610244655935843
sI2
F0.14994576581455765
sI3
F0.10369547786547507
sI4
F0.16383844177521509
ssS'rusland'
p1305
(dp1306
I0
F0.68058469253801801
sI1
F0.085572094084525097
sI2
F0.68762087227654356
sI3
F0.017556581953393005
sI4
F0.43131058213900031
ssS'slimme'
p1307
(dp1308
I0
F0.089234092075866148
sI1
F0.59606069465415068
sI2
F0.84276714725204904
sI3
F0.50753156410990408
sI4
F0.48009822433455479
ssS'krapuliteitenalarm'
p1309
(dp1310
I0
F0.74022747929031885
sI1
F0.91500872408069045
sI2
F0.74071780267208531
sI3
F0.46528281907511332
sI4
F0.20655981460989944
ssS'xf3k'
p1311
(dp1312
I0
F0.22566670362142485
sI1
F0.87007714039236728
sI2
F0.12545609012956987
sI3
F0.32913721579036775
sI4
F0.91256104172814356
ssS'xe8'
p1313
(dp1314
I0
F0.58036742548430142
sI1
F-0.0054191050266464815
sI2
F0.38461906843700411
sI3
F0.30530924936144316
sI4
F0.55907338141143315
ssS'pelgrimscode'
p1315
(dp1316
I0
F1.3224079954039809
sI1
F0.38188313626349818
sI2
F0.38424903018841572
sI3
F-0.073806620469266421
sI4
F0.976316243451954
ssS'like'
p1317
(dp1318
I0
F0.88018885190851592
sI1
F0.34806126323769748
sI2
F0.14078049925926592
sI3
F0.50733212138238004
sI4
F0.41978549668629755
ssS'gedachtegoed'
p1319
(dp1320
I0
F0.95073852432839179
sI1
F0.37722057036819173
sI2
F0.46319135040424908
sI3
F-0.1080443469427067
sI4
F0.31689673375020688
ssS'pianist'
p1321
(dp1322
I0
F0.69107402319097677
sI1
F0.34053077295083056
sI2
F0.64803236703470091
sI3
F0.12848455757837199
sI4
F0.63602729670676783
ssS'heerlijke'
p1323
(dp1324
I0
F0.61973462638938559
sI1
F0.93075942231292008
sI2
F0.59013745914956572
sI3
F0.73461494043110809
sI4
F0.95191721084688652
ssS'd'
(dp1325
I0
F0.2494271616110891
sI1
F0.2384839627661775
sI2
F0.62698978665566829
sI3
F0.60905791558786837
sI4
F0.5006282805378246
ssS'kijkt'
p1326
(dp1327
I0
F0.23983935901391534
sI1
F0.6151254579580977
sI2
F0.74552093927658536
sI3
F-0.15806863873251359
sI4
F0.30237127207115155
ssS'ncrv'
p1328
(dp1329
I0
F0.81277274961277113
sI1
F0.52712702867737027
sI2
F0.57087452117355775
sI3
F0.19702263654262919
sI4
F0.49861619051047573
ssS'vd'
p1330
(dp1331
I0
F0.02731945012780531
sI1
F0.47568053501011986
sI2
F0.45513520815836128
sI3
F1.2818737777063274
sI4
F0.15188332013368894
ssS'sinds'
p1332
(dp1333
I0
F0.29654021284514021
sI1
F0.80397920809184631
sI2
F0.42795021647340531
sI3
F0.98329987753570647
sI4
F0.840203688598674
ssS'leek'
p1334
(dp1335
I0
F0.45154947008432489
sI1
F0.27145371356524411
sI2
F0.31717585133678516
sI3
F-0.13468535208616148
sI4
F0.85851420517957622
ssS'janken'
p1336
(dp1337
I0
F0.84767123677237222
sI1
F0.87879906120751028
sI2
F0.76701563235642645
sI3
F0.52118524230915531
sI4
F0.41241386990279666
ssS'pedojagers'
p1338
(dp1339
I0
F0.20834205415024318
sI1
F0.64050927286202064
sI2
F0.39133108456964499
sI3
F0.84806094133370735
sI4
F0.49331744508156211
ssS't'
(dp1340
I0
F-0.061403243414989941
sI1
F0.90015300988444313
sI2
F0.11654559534567452
sI3
F0.33410959365919513
sI4
F0.01238732340784255
ssS'gezondheidskrant'
p1341
(dp1342
I0
F0.84751898368478651
sI1
F0.56629605047006604
sI2
F0.58174696060147302
sI3
F0.64143207790006829
sI4
F0.60291034503745078
ssS'heen'
p1343
(dp1344
I0
F0.85693856183631745
sI1
F0.79071546908010704
sI2
F0.37562000120019123
sI3
F0.17727002580674484
sI4
F0.19111032725580726
ssS'heel'
p1345
(dp1346
I0
F0.66806079567819665
sI1
F0.66503662853347478
sI2
F0.85538843552630439
sI3
F0.62891561048911038
sI4
F0.79389556649451853
ssS'kennen'
p1347
(dp1348
I0
F0.20506131487833321
sI1
F0.85536420833659921
sI2
F0.049378503058935042
sI3
F0.50084297007428424
sI4
F0.32510714174341959
ssS'kosten'
p1349
(dp1350
I0
F0.80649053094503398
sI1
F0.071161025507963938
sI2
F0.91084652935635313
sI3
F0.88538429892502757
sI4
F0.097411455533855981
ssS'wensen'
p1351
(dp1352
I0
F0.13029213201444351
sI1
F0.12131908508752606
sI2
F0.5149554426670383
sI3
F0.061947656718806553
sI4
F0.35426113471593995
ssS'elke'
p1353
(dp1354
I0
F0.091403349590315125
sI1
F0.7761239024537312
sI2
F0.56119664767063659
sI3
F1.0227300564765591
sI4
F0.03949287145589659
ssS'pingu'
p1355
(dp1356
I0
F0.50350808082393106
sI1
F0.18322878877479151
sI2
F0.37606946018552911
sI3
F0.52978371946829284
sI4
F0.52792432912939213
ssS'twitter'
p1357
(dp1358
I0
F0.93908382112271838
sI1
F0.2976409257920678
sI2
F0.01307292196471078
sI3
F0.36094380855663322
sI4
F0.57943482608113761
ssS'zijn'
p1359
(dp1360
I0
F-0.016164274359097449
sI1
F0.23897374266451649
sI2
F0.32033924084791071
sI3
F0.41281477572408881
sI4
F0.02646046506865507
ssS'begin'
p1361
(dp1362
I0
F0.48527966017335206
sI1
F0.59213173981074874
sI2
F0.91154454474777824
sI3
F0.47832841831822681
sI4
F0.076287922763097704
ssS'bedorenbos'
p1363
(dp1364
I0
F0.58194751282474988
sI1
F0.26959238568908861
sI2
F0.6879133300276028
sI3
F1.259367744936523
sI4
F0.20822139151315702
ssS'holleeder'
p1365
(dp1366
I0
F0.21385599560869228
sI1
F0.17362134813832308
sI2
F0.15038066668230313
sI3
F0.76549526894170195
sI4
F0.85492067901397928
ssS'home'
p1367
(dp1368
I0
F0.46582565497520251
sI1
F0.12572886178229742
sI2
F0.28696255898240014
sI3
F0.44573249186797026
sI4
F0.037128161348976105
ssS'heeft'
p1369
(dp1370
I0
F-0.20824731857975778
sI1
F0.47290004095023214
sI2
F0.63198861930853301
sI3
F0.56074035539807043
sI4
F0.96105347584510181
ssS'meest'
p1371
(dp1372
I0
F0.073266974197697621
sI1
F0.99465343500568759
sI2
F0.15985163564723703
sI3
F0.84139769189656066
sI4
F0.20118539490861856
ssS'werkt'
p1373
(dp1374
I0
F0.45791168304398933
sI1
F-0.19933501884309882
sI2
F0.99132938075261912
sI3
F1.5617797400976112
sI4
F0.71343956559640265
ssS'mooi'
p1375
(dp1376
I0
F1.3883791228873343
sI1
F1.0443776869606916
sI2
F0.55766870591201323
sI3
F-0.36032070819968171
sI4
F0.97306725369095992
ssS'ieder'
p1377
(dp1378
I0
F0.69638984724600927
sI1
F0.29327373063362888
sI2
F0.46790078605417273
sI3
F0.14414126625390186
sI4
F0.63139172338120997
ssS'gewonnen'
p1379
(dp1380
I0
F0.81394115671885037
sI1
F0.95386526008654382
sI2
F0.16757280975722982
sI3
F0.1362488287491426
sI4
F0.75872270251995988
ssS'slachtoffers'
p1381
(dp1382
I0
F0.9593102747751151
sI1
F0.21516259545990229
sI2
F0.17675190622034961
sI3
F-0.3078598730304824
sI4
F0.58731974024375488
ssS'doen'
p1383
(dp1384
I0
F0.57442814441704726
sI1
F0.66711375964491459
sI2
F0.3025861686776159
sI3
F0.67909042019357579
sI4
F0.99828913504172789
ssS'stem'
p1385
(dp1386
I0
F0.27412656582777517
sI1
F0.75408903715325148
sI2
F0.82142098569579314
sI3
F0.65581670559997063
sI4
F0.66838888318959622
ssS'opvretende'
p1387
(dp1388
I0
F0.8565768385891126
sI1
F0.5405444742582286
sI2
F0.59048655619487378
sI3
F0.70966752244674924
sI4
F0.89088444153660729
ssS'vliegende'
p1389
(dp1390
I0
F0.75976833058800564
sI1
F0.50557315397163816
sI2
F0.46199216165717577
sI3
F0.83083262687682924
sI4
F0.5584428466857031
ssS'doet'
p1391
(dp1392
I0
F0.16364193286787068
sI1
F0.65998223380827181
sI2
F0.87168038250796587
sI3
F-0.11555571681619908
sI4
F0.9077808545468975
ssS'waarschijnlijk'
p1393
(dp1394
I0
F0.098900168245260725
sI1
F0.7466236536736911
sI2
F0.13333125738414597
sI3
F0.63905738661213829
sI4
F0.68770268039805982
ssS'?'
(dp1395
I0
F-0.44421043460775644
sI1
F0.63932429498770893
sI2
F0.35784169874048671
sI3
F0.6302905801604497
sI4
F-0.13405476200256441
ssS'jongeren'
p1396
(dp1397
I0
F0.70169952697408589
sI1
F0.78345326296919504
sI2
F0.40864073803142897
sI3
F-0.52220691585302692
sI4
F0.55248527845418405
ssS'woord'
p1398
(dp1399
I0
F0.36466883630358882
sI1
F0.46081063537488298
sI2
F0.071020020723567084
sI3
F0.4382452210444453
sI4
F0.91110563074021711
ssS'indrukwekkende'
p1400
(dp1401
I0
F0.38982551415561517
sI1
F0.13018747068961437
sI2
F0.61681615681188762
sI3
F0.1635789347139642
sI4
F0.86645577833190202
ssS'volgen'
p1402
(dp1403
I0
F-0.39935884225935508
sI1
F0.60302722437658995
sI2
F0.55672923557128962
sI3
F0.96235262604157124
sI4
F0.97921268994689947
ssS'stel'
p1404
(dp1405
I0
F0.3317386025316687
sI1
F0.35739275887858118
sI2
F0.75396431185848645
sI3
F0.59862633096355289
sI4
F0.67998702508199405
ssS'kan'
p1406
(dp1407
I0
F0.46620393075455008
sI1
F0.25813131462614797
sI2
F0.68776322333890516
sI3
F0.38841620939489302
sI4
F0.52980587111072164
ssS'huisman'
p1408
(dp1409
I0
F0.52949810514679285
sI1
F0.79795670563811993
sI2
F0.46172725340180809
sI3
F0.6788240140611701
sI4
F0.22574199853194241
ssS'oeh'
p1410
(dp1411
I0
F0.59037443425054892
sI1
F0.022870653323157977
sI2
F0.57300704132377323
sI3
F0.56013068704811886
sI4
F0.25366570130025889
ssS'christenen'
p1412
(dp1413
I0
F1.099774745961329
sI1
F0.62013576263663595
sI2
F0.25028710564566786
sI3
F-0.34272771073570696
sI4
F0.59255814805924878
ssS'achj'
p1414
(dp1415
I0
F0.2504632639758575
sI1
F0.3385540491877253
sI2
F0.91890980431731284
sI3
F0.6048143207527612
sI4
F0.82739393364744651
ssS'devijfdedag'
p1416
(dp1417
I0
F0.043299463799133832
sI1
F0.54683742781941214
sI2
F0.28998813696514186
sI3
F-0.19558789987841002
sI4
F0.38152351596238787
ssS'_'
(dp1418
I0
F0.90552392019649264
sI1
F0.67641840435444867
sI2
F0.73555223059560271
sI3
F0.47136767994952594
sI4
F0.31157829003217635
ssS'om'
p1419
(dp1420
I0
F0.07068344861784516
sI1
F0.18678859339914924
sI2
F0.74804859222969156
sI3
F0.86551338158166535
sI4
F0.50880860087291369
ssS'frozenplanet'
p1421
(dp1422
I0
F0.86217151759993993
sI1
F0.67684914310924316
sI2
F0.6998613349545435
sI3
F0.40893300114859976
sI4
F0.91943150518250749
ssS'gestaan'
p1423
(dp1424
I0
F0.53529540553716048
sI1
F0.013259402675139073
sI2
F0.50046353796006293
sI3
F0.76886630826347113
sI4
F0.26147097640719114
ssS'oh'
p1425
(dp1426
I0
F0.69806291954472521
sI1
F0.45573297719553385
sI2
F0.30089971594292897
sI3
F0.71908421042365978
sI4
F0.98858545287738109
ssS'elkaar'
p1427
(dp1428
I0
F0.23018286814188391
sI1
F0.77570805661215991
sI2
F0.69303352752062863
sI3
F0.78110238064057158
sI4
F0.070563981905154019
ssS'supremestrt'
p1429
(dp1430
I0
F0.077198311136686987
sI1
F0.33470285008585399
sI2
F0.34513735220139674
sI3
F0.35866803620825971
sI4
F0.071687095171723253
ssS'prachtig'
p1431
(dp1432
I0
F0.86796336435224808
sI1
F0.98684406959107263
sI2
F-0.096238257328109117
sI3
F0.39483640834424955
sI4
F0.10568691332646903
ssS'alleen'
p1433
(dp1434
I0
F1.1066737776765279
sI1
F0.84253839301928302
sI2
F0.98873616954556331
sI3
F-0.11446392009639234
sI4
F0.030709965799248069
ssS'o'
(dp1435
I0
F-0.081252449483634095
sI1
F0.40807898897206052
sI2
F0.89428021945071334
sI3
F0.73729071034191673
sI4
F0.57648848419198029
ssS'drama'
p1436
(dp1437
I0
F0.42052307240148895
sI1
F0.14013833814624499
sI2
F0.96431912258760366
sI3
F0.96438875230072962
sI4
F0.040974996339826396
ssS'ander'
p1438
(dp1439
I0
F0.2668932255052705
sI1
F0.4814203884985776
sI2
F0.36156579497791175
sI3
F0.66984674211951678
sI4
F0.90335266627251787
ssS'wonen'
p1440
(dp1441
I0
F0.076661643983899824
sI1
F0.10384798081126537
sI2
F0.45173252301575839
sI3
F0.1342035707212432
sI4
F0.28434384452289613
ssS'educatief'
p1442
(dp1443
I0
F1.1645259019092165
sI1
F0.35446697367765345
sI2
F0.66035178893200586
sI3
F-0.086448662843079366
sI4
F0.33506021833700861
ssS'idd'
p1444
(dp1445
I0
F0.8172083035961073
sI1
F0.27736124156492381
sI2
F0.57422627065295528
sI3
F-0.29106657907528072
sI4
F0.76627535339937003
ssS'gewoon'
p1446
(dp1447
I0
F0.70156738954317377
sI1
F0.82012024495998259
sI2
F0.68742548066845421
sI3
F-0.26450220115429895
sI4
F0.31528262597445889
ssS'lief'
p1448
(dp1449
I0
F0.021434144581326836
sI1
F0.94687875326393733
sI2
F0.4728830648654016
sI3
F0.43833500930492425
sI4
F0.11604814936350079
ssS'xf6rdinator'
p1450
(dp1451
I0
F0.72962232584729747
sI1
F0.38212895826243931
sI2
F0.10444448601132603
sI3
F0.50029833999840756
sI4
F0.32072090886153815
ssS'al'
p1452
(dp1453
I0
F-0.32136562938665969
sI1
F0.16238659887797863
sI2
F0.1564264677543232
sI3
F1.0785262938140454
sI4
F0.41967432238889391
ssS'realityserie'
p1454
(dp1455
I0
F-0.26188703826128101
sI1
F0.69279353240991426
sI2
F0.64229232396794622
sI3
F0.84293068583651787
sI4
F0.47531021253356748
ssS'samen'
p1456
(dp1457
I0
F0.87272732172661538
sI1
F0.38068145068031628
sI2
F-0.25596273199322095
sI3
F0.16741243605634537
sI4
F0.27744635175183857
ssS'liet'
p1458
(dp1459
I0
F0.80641913813779009
sI1
F0.41877357863715003
sI2
F0.023911152334151239
sI3
F0.21214214959188579
sI4
F0.95932570472880829
ssS'hebbe'
p1460
(dp1461
I0
F0.33964606487542759
sI1
F0.72373646105106215
sI2
F0.1118164212021461
sI3
F0.40261662935867382
sI4
F0.25352396180600389
ssS'duyns'
p1462
(dp1463
I0
F0.55508489009020767
sI1
F0.41378575032600035
sI2
F0.2927991621000533
sI3
F-0.1671931016804574
sI4
F0.50025928817403054
ssS'slecht'
p1464
(dp1465
I0
F0.9339459155019888
sI1
F0.62123090333773523
sI2
F0.51338692359131333
sI3
F0.036028466417562424
sI4
F0.46904516086585812
ssS'aanrader'
p1466
(dp1467
I0
F0.77684905975440322
sI1
F0.56714225558401465
sI2
F0.14763356077132037
sI3
F-0.29344243738960801
sI4
F0.11796964752477634
ssS'van'
p1468
(dp1469
I0
F-0.84189833118928348
sI1
F1.0005129246576197
sI2
F0.61913011424008235
sI3
F0.29836092693228933
sI4
F0.27420959225831915
ssS'zwaar'
p1470
(dp1471
I0
F0.59170141337582138
sI1
F0.52181063309599873
sI2
F0.5501327140209461
sI3
F0.051070145682925207
sI4
F0.44067557796572665
ssS'brut'
p1472
(dp1473
I0
F0.22802079100704839
sI1
F0.54261336220634426
sI2
F0.55826244948761161
sI3
F1.0461425901715564
sI4
F0.51946566188535981
ssS'vallen'
p1474
(dp1475
I0
F0.27949386517040442
sI1
F0.15251473645786701
sI2
F0.70621053995738081
sI3
F0.55497851579853641
sI4
F0.54255887645516621
ssS'hey'
p1476
(dp1477
I0
F0.080939545372202312
sI1
F0.45144202590297405
sI2
F0.40079536573782515
sI3
F-0.094119939022696858
sI4
F0.67848035638920456
ssS'lol'
p1478
(dp1479
I0
F0.53147880910333201
sI1
F0.37677421924433774
sI2
F0.70673506629969474
sI3
F-0.0034213401230994817
sI4
F0.8059912319216902
ssS'wekelijks'
p1480
(dp1481
I0
F0.087430036878023934
sI1
F0.24913574566435959
sI2
F0.22339241005145655
sI3
F0.86685257274405225
sI4
F0.92322403148029164
ssS'zie'
p1482
(dp1483
I0
F0.41573892849182692
sI1
F0.16384360414132021
sI2
F0.72193286991192118
sI3
F0.60496473993037625
sI4
F0.47977899165418963
ssS'heb'
p1484
(dp1485
I0
F0.052771484645979576
sI1
F0.10604579883256313
sI2
F0.069655055411268638
sI3
F0.8539086008450717
sI4
F0.52900757752977134
ssS'teruggekomen'
p1486
(dp1487
I0
F-0.07600660222248419
sI1
F0.40931892334171105
sI2
F0.24464076185699718
sI3
F0.86903470902585511
sI4
F0.70720361263468257
ssS'levensbeschouwingslessen'
p1488
(dp1489
I0
F0.95488201015044827
sI1
F0.18851691577423751
sI2
F0.82709747588732829
sI3
F0.41276019388268886
sI4
F0.96204428091400662
ssS'wellicht'
p1490
(dp1491
I0
F-0.23586429764122638
sI1
F0.0053420008825759467
sI2
F0.8510097314982723
sI3
F2.3576406293172312
sI4
F-0.35073775909092147
ssS'prutpraat'
p1492
(dp1493
I0
F0.58406903774560959
sI1
F0.7882869997660138
sI2
F0.057888245412057317
sI3
F0.29789374555903297
sI4
F0.54159777294379863
ssS'wat'
p1494
(dp1495
I0
F-0.11727128651296329
sI1
F0.34096540002545533
sI2
F0.58320225984314922
sI3
F-0.43612826229650908
sI4
F0.56634541238295388
ssS'was'
p1496
(dp1497
I0
F-0.29290065383732738
sI1
F0.42856508954506389
sI2
F0.63412869782242376
sI3
F0.92866547683771572
sI4
F0.5063672407010652
ssS'gij'
p1498
(dp1499
I0
F0.64142823830484785
sI1
F0.17514589844800915
sI2
F0.72546736900746922
sI3
F0.47456458156054987
sI4
F0.71255991821848041
ssS'hard'
p1500
(dp1501
I0
F0.19683524204398523
sI1
F0.25528659196232489
sI2
F0.72331785836872886
sI3
F0.77456234623845854
sI4
F0.11471278315564595
ssS'dagen'
p1502
(dp1503
I0
F0.87954083813616446
sI1
F0.032437870640971457
sI2
F0.69599501489102067
sI3
F0.41169087547002525
sI4
F0.57058461957525197
ssS'jongern'
p1504
(dp1505
I0
F0.57330003703534482
sI1
F0.8148615255947379
sI2
F0.8870118261294303
sI3
F0.70180961598502745
sI4
F0.27276329429480523
ssS'nederland'
p1506
(dp1507
I0
F0.86804098296845622
sI1
F0.52685384102287236
sI2
F0.0057858711128133495
sI3
F0.41709092929190172
sI4
F0.63293370429114026
ssS'echofon'
p1508
(dp1509
I0
F0.64135727707452883
sI1
F0.09218675446303369
sI2
F0.33620156079283126
sI3
F0.78093354839093676
sI4
F0.62575821485075933
ssS'leiden'
p1510
(dp1511
I0
F0.23610276026516414
sI1
F0.55048763192640682
sI2
F0.4671553599912503
sI3
F0.47971452766207223
sI4
F0.2281633910026554
ssS'triest'
p1512
(dp1513
I0
F0.25660798806057511
sI1
F0.74155903522412636
sI2
F0.32489027401435677
sI3
F0.5414519176712409
sI4
F0.93949812273787892
ssS'blijktuitmijngewicht'
p1514
(dp1515
I0
F0.30996925064233605
sI1
F0.67677781857663255
sI2
F0.79652941717514814
sI3
F0.5566465102608994
sI4
F0.58818349325280184
ssS'zouden'
p1516
(dp1517
I0
F0.11695142353591634
sI1
F0.1139334926988621
sI2
F0.1912998912992338
sI3
F0.042976260814695313
sI4
F0.068198841764604806
ssS'behandeld'
p1518
(dp1519
I0
F0.40534287977202499
sI1
F0.97039917249152929
sI2
F0.19150011013020954
sI3
F0.070107740507182006
sI4
F0.72451429297213632
ssS'serie'
p1520
(dp1521
I0
F-0.29932340428452814
sI1
F-0.090140749152826022
sI2
F0.78190059432776327
sI3
F0.6460742114557364
sI4
F0.62134991057873612
ssS'familie'
p1522
(dp1523
I0
F0.4332137745220378
sI1
F0.38323318661588751
sI2
F0.1512013758877595
sI3
F1.1553756866418432
sI4
F0.35191537190754696
ssS'zwervend'
p1524
(dp1525
I0
F-0.069393987972309515
sI1
F0.69414800867691462
sI2
F0.36421770918509538
sI3
F0.35513595069787518
sI4
F0.45713703675606288
ssS'zetten'
p1526
(dp1527
I0
F0.33525343923463602
sI1
F0.80056543892937848
sI2
F0.73050719943418674
sI3
F0.18971300033564961
sI4
F0.84358493627045428
ssS'loterij'
p1528
(dp1529
I0
F0.51188491964244387
sI1
F0.11978964032804947
sI2
F0.25181689101364452
sI3
F1.0877704177328402
sI4
F0.43910211671256177
ssS'vampieren'
p1530
(dp1531
I0
F1.0477268758957015
sI1
F0.16706179749982039
sI2
F-0.20735295215549313
sI3
F-0.45645657935266148
sI4
F0.75540588193407732
ssS'mailen'
p1532
(dp1533
I0
F0.52259785426875971
sI1
F0.14754696518725652
sI2
F0.96952665300414298
sI3
F0.86253025614298329
sI4
F0.69060704257803773
ssS'kiekn'
p1534
(dp1535
I0
F0.78958410679696733
sI1
F0.87403683627326978
sI2
F0.26315227114837891
sI3
F0.32967599793566005
sI4
F0.29813443785193455
ssS'helemaal'
p1536
(dp1537
I0
F0.484236172105729
sI1
F0.94255204685577798
sI2
F0.58979389662321569
sI3
F1.3995563396791255
sI4
F-0.014564034786148082
ssS'stuiterende'
p1538
(dp1539
I0
F0.54043108912085003
sI1
F0.87997806426189895
sI2
F0.60968667853423453
sI3
F0.92155789516065612
sI4
F0.036511097967799756
ssS'mooie'
p1540
(dp1541
I0
F0.78689632391234998
sI1
F0.12340299212879242
sI2
F0.90237699369638935
sI3
F-0.070647241383827108
sI4
F0.060029789239124894
ssS'ouders'
p1542
(dp1543
I0
F0.18120260668123936
sI1
F0.76386189981192221
sI2
F0.86241890123114084
sI3
F0.54336589205549446
sI4
F0.086451767555031298
ssS'wish'
p1544
(dp1545
I0
F0.71307863065951471
sI1
F0.4429797533342309
sI2
F0.82753650613914742
sI3
F0.91744498485872195
sI4
F0.7083107997155933
ssS'nieuwe'
p1546
(dp1547
I0
F0.0039392608777200798
sI1
F0.19623437496455001
sI2
F0.1055356286964597
sI3
F0.40014142134569808
sI4
F0.52205524751518495
ssS'planet'
p1548
(dp1549
I0
F-0.22473599904193395
sI1
F0.016383989183570973
sI2
F0.1929778119683925
sI3
F1.1113788480820026
sI4
F0.88659629231221637
ssS'kinderen'
p1550
(dp1551
I0
F0.50496997144868572
sI1
F0.95173788240404955
sI2
F0.61668630541714775
sI3
F0.71289008313872559
sI4
F0.78529175384045791
ssS'dinsdag'
p1552
(dp1553
I0
F0.081022935866047113
sI1
F0.91093757068102021
sI2
F0.25054567629266938
sI3
F0.31973158718243411
sI4
F0.23043798529381809
ssS'site'
p1554
(dp1555
I0
F0.82606009196376162
sI1
F0.6031238873164394
sI2
F0.092434187240148194
sI3
F0.15442209163810516
sI4
F0.80173557638096049
ssS'politie'
p1556
(dp1557
I0
F-0.29729147911114467
sI1
F-0.10296655953455033
sI2
F0.35730585741308318
sI3
F0.98212505815869211
sI4
F0.27745090262693645
ssS'x2665'
p1558
(dp1559
I0
F0.69943992896327623
sI1
F0.65355226976096037
sI2
F-0.28182556495324773
sI3
F0.021281028535160836
sI4
F0.37175496775369127
ssS'proeftijd'
p1560
(dp1561
I0
F0.6296142318430481
sI1
F0.20708240937193684
sI2
F0.58045494521818886
sI3
F0.39486216190597673
sI4
F0.59036290576184269
ssS'flinterdun'
p1562
(dp1563
I0
F0.78622610650607161
sI1
F0.18409780629137584
sI2
F0.2914457637856519
sI3
F0.15442452249845248
sI4
F0.012224677082017636
ssS'thuis'
p1564
(dp1565
I0
F0.095717584744185541
sI1
F0.81083402724238185
sI2
F0.47157258873900798
sI3
F0.1633012219971757
sI4
F0.53332046789039922
ssS'paard'
p1566
(dp1567
I0
F0.051030557022493407
sI1
F0.91016863734550713
sI2
F0.25435038672549959
sI3
F0.41590015889718296
sI4
F0.72647050908770172
ssS'willen'
p1568
(dp1569
I0
F-0.07467364851942182
sI1
F0.97312038426507486
sI2
F0.045440381923314496
sI3
F0.85649683253242392
sI4
F0.30069627798917803
ssS'af'
p1570
(dp1571
I0
F-0.034525030118684678
sI1
F0.87534983713771475
sI2
F0.63083770118810167
sI3
F0.96938520838954623
sI4
F0.5113904436096971
ssS'televisieprogramma'
p1572
(dp1573
I0
F0.78069402917597652
sI1
F0.70940407265130068
sI2
F0.56537420241306824
sI3
F-0.20180790395079592
sI4
F0.50180045006101592
ssS'ah'
p1574
(dp1575
I0
F0.032517688135288034
sI1
F0.74819723607180533
sI2
F0.72230184839595168
sI3
F1.9143066242765849
sI4
F0.2298384514230391
ssS'politica'
p1576
(dp1577
I0
F0.14091549161205943
sI1
F0.35466364492518515
sI2
F0.31855769940694145
sI3
F0.5935685337734935
sI4
F0.57024845559620219
ssS'life'
p1578
(dp1579
I0
F1.8832953093167371
sI1
F1.1341916046885749
sI2
F0.38262269328479293
sI3
F-0.40902535536887602
sI4
F0.8556873556089627
ssS'welke'
p1580
(dp1581
I0
F0.6930129858903985
sI1
F0.35812979069698392
sI2
F0.30277858939072061
sI3
F0.41292991111961896
sI4
F0.80436852079709198
ssS'erin'
p1582
(dp1583
I0
F0.55531149712993677
sI1
F0.12082901632129645
sI2
F0.83630418663961059
sI3
F0.11922988266740486
sI4
F0.11046341106331727
ssS'response7059'
p1584
(dp1585
I0
F0.16617515701353383
sI1
F0.24377373365630278
sI2
F0.23937987868488825
sI3
F0.25267438303889667
sI4
F0.57661913686816613
ssS'gelooft'
p1586
(dp1587
I0
F0.64393872881101011
sI1
F0.76871504478548502
sI2
F0.4605489074968408
sI3
F0.89008965261212958
sI4
F0.77844094316420787
ssS'uit'
p1588
(dp1589
I0
F-0.27684136415887872
sI1
F0.85978933187542106
sI2
F0.69669712995456301
sI3
F0.36436687700704323
sI4
F0.20412170881868111
ssS'uitgevoerd'
p1590
(dp1591
I0
F0.72762674837777563
sI1
F0.83178362993687582
sI2
F0.32758413124725455
sI3
F0.48227344278781087
sI4
F0.29278276218187138
ssS'deed'
p1592
(dp1593
I0
F0.98692193529132954
sI1
F0.82600757056868435
sI2
F0.087445657270269053
sI3
F0.42936376938598403
sI4
F0.10856311764680053
ssS'komen'
p1594
(dp1595
I0
F-0.12194220116192916
sI1
F0.8848295189350126
sI2
F0.80664828975626168
sI3
F1.4014473136066246
sI4
F-0.41509470107970486
ssS'ew'
p1596
(dp1597
I0
F-0.17480567044630152
sI1
F0.77940299503912047
sI2
F0.70293454383860698
sI3
F0.88472222403166445
sI4
F0.90010932630929907
ssS'vakantie'
p1598
(dp1599
I0
F0.61636855512581146
sI1
F0.02096304079837482
sI2
F0.7440345941220099
sI3
F0.61040848151393801
sI4
F0.9526617293746501
ssS'relativeert'
p1600
(dp1601
I0
F0.70844460143028043
sI1
F0.7952133144664898
sI2
F0.90027542556876738
sI3
F0.74603766929897564
sI4
F0.20066054081708409
ssS'muziek'
p1602
(dp1603
I0
F0.90197791234421587
sI1
F0.75368561735179607
sI2
F0.05120759917400957
sI3
F0.90394103399704906
sI4
F0.72030780271710737
ssS'intervieuw'
p1604
(dp1605
I0
F0.56766424089390366
sI1
F0.16548006050961575
sI2
F0.38102093092134304
sI3
F0.57238888454878634
sI4
F0.052392739949143875
ssS'erger'
p1606
(dp1607
I0
F0.018786676059460501
sI1
F0.74847456788971856
sI2
F0.99107657826729922
sI3
F0.44782986793333412
sI4
F0.44718010631284988
ssS'na'
p1608
(dp1609
I0
F0.47365963220293295
sI1
F0.75813595220203556
sI2
F0.97470011924126709
sI3
F0.60769424805614991
sI4
F0.50423460424333155
ssS'tip'
p1610
(dp1611
I0
F0.17119403027205451
sI1
F0.77750152903569425
sI2
F0.23220372947390294
sI3
F0.089867842097822753
sI4
F0.23158263225979275
ssS'streven'
p1612
(dp1613
I0
F0.62674670242270325
sI1
F0.29735065180564496
sI2
F0.11931380996257884
sI3
F0.82168597886316053
sI4
F0.81004482769544661
ssS'gaan'
p1614
(dp1615
I0
F-0.11474655659403551
sI1
F0.42935191034952791
sI2
F0.11483634172165688
sI3
F1.0616053483969539
sI4
F0.67173892647107403
ssS'zondag'
p1616
(dp1617
I0
F0.68780345276630794
sI1
F0.93142938088692073
sI2
F0.1959193531853865
sI3
F0.16094704120199102
sI4
F0.3747606403104049
ssS'dekist'
p1618
(dp1619
I0
F0.44836699942303393
sI1
F0.2622525067667475
sI2
F0.93881215883391012
sI3
F0.13980051234593824
sI4
F0.96074044616067122
ssS'redden'
p1620
(dp1621
I0
F0.46670092973064742
sI1
F0.59796703016333252
sI2
F0.31367582591487125
sI3
F0.25339149998388494
sI4
F0.5454307628117625
ssS'nu'
p1622
(dp1623
I0
F-0.58365314743461971
sI1
F0.4749085340895447
sI2
F-0.065761678825282277
sI3
F0.75580489211089563
sI4
F0.21667854049382576
ssS'regelmatig'
p1624
(dp1625
I0
F0.57958240483135004
sI1
F0.56117879866007525
sI2
F0.95531787642785471
sI3
F0.54824312697122102
sI4
F0.78871085298584165
ssS'extra'
p1626
(dp1627
I0
F0.10617030785213265
sI1
F0.15426542267770357
sI2
F0.74844972546831623
sI3
F0.89241080292483865
sI4
F0.30881868614568014
ssS'froz'
p1628
(dp1629
I0
F0.24434321263954423
sI1
F0.82207102508587659
sI2
F0.33706696543112408
sI3
F0.39085133701655095
sI4
F0.89831800693062291
ssS'voortkomt'
p1630
(dp1631
I0
F0.22102198044720803
sI1
F0.60564206337587234
sI2
F0.7602004953913668
sI3
F0.35600432742181215
sI4
F0.070185912179040438
ssS'finale'
p1632
(dp1633
I0
F1.0207885663636649
sI1
F0.99078247951191489
sI2
F0.21874388221214874
sI3
F0.065438814090609893
sI4
F0.47116685588603541
ssS'achtergronden'
p1634
(dp1635
I0
F0.94543099026033617
sI1
F0.65380601347925482
sI2
F0.36078766550517793
sI3
F-0.12696320545988918
sI4
F0.038446531741827925
ssS'geregiseerd'
p1636
(dp1637
I0
F0.72052071442331245
sI1
F0.90211083962505634
sI2
F0.22108281531619112
sI3
F-0.32540803074431435
sI4
F0.78302115056638988
ssS'docus'
p1638
(dp1639
I0
F0.53206995050220629
sI1
F0.19671066982881552
sI2
F0.71223390002148923
sI3
F0.21320922028187086
sI4
F0.79660432617854626
ssS'nummers'
p1640
(dp1641
I0
F0.3250656382043543
sI1
F0.79279035521843044
sI2
F0.6141252437996968
sI3
F0.61610520953727299
sI4
F0.15313749029290924
ssS'hooiemand'
p1642
(dp1643
I0
F0.6203867837900976
sI1
F0.31992419436272668
sI2
F0.83159363851199908
sI3
F0.38988989394738399
sI4
F0.76698835272066224
ssS'wonderlijk'
p1644
(dp1645
I0
F0.26238223422510937
sI1
F0.29951458063973613
sI2
F0.17045201329034643
sI3
F0.59788401592623486
sI4
F0.81396729610002916
ssS'zien'
p1646
(dp1647
I0
F0.10075377265683048
sI1
F0.39811149153623404
sI2
F0.68531687482600978
sI3
F0.548896033665903
sI4
F0.21384590199629749
ssS'vrij'
p1648
(dp1649
I0
F-0.083653277863126568
sI1
F0.28033969834858241
sI2
F0.8292401710091255
sI3
F0.48301134518249039
sI4
F0.59143425426124074
ssS'lang'
p1650
(dp1651
I0
F0.25684988165714867
sI1
F0.68678347833699283
sI2
F0.79917694091372804
sI3
F0.12583817556309126
sI4
F0.37344552533212116
ssS'verhaal'
p1652
(dp1653
I0
F0.58291726702622504
sI1
F0.078822147598262587
sI2
F0.024774804953507163
sI3
F1.3650164230337931
sI4
F0.26160840975855054
ssS'drogist'
p1654
(dp1655
I0
F0.059260454706562576
sI1
F0.23854556517721723
sI2
F0.23628699092853706
sI3
F0.72110901779285108
sI4
F-0.0053415734032722269
ssS'e'
(dp1656
I0
F0.25704562610132059
sI1
F0.13854408488306227
sI2
F0.6040046557940727
sI3
F0.6745884136164022
sI4
F0.75322043510330061
ssS'reclame'
p1657
(dp1658
I0
F0.44602111932595595
sI1
F0.11936137020455019
sI2
F0.31864847464789914
sI3
F0.78164501401173181
sI4
F0.19287033747976007
ssS'youtube'
p1659
(dp1660
I0
F0.49975771494527532
sI1
F0.32999654628805658
sI2
F0.50071247230504146
sI3
F0.70914768022033758
sI4
F0.45161127035085163
ssS'wereld'
p1661
(dp1662
I0
F0.43677059362333853
sI1
F0.60211920653528017
sI2
F0.26776804323115899
sI3
F0.15323457930465573
sI4
F0.29040653039763997
ssS'eos'
p1663
(dp1664
I0
F0.23318330044369207
sI1
F0.069251443286609302
sI2
F0.55035485136463935
sI3
F0.36089673940148836
sI4
F0.11677453232832939
ssS'groot'
p1665
(dp1666
I0
F0.62972492204070396
sI1
F0.92139491533971429
sI2
F0.48384538102536945
sI3
F-0.21385210246520139
sI4
F0.77658320460753461
ssS'u'
(dp1667
I0
F0.16632857830221279
sI1
F0.84721682099222162
sI2
F0.69594436403970594
sI3
F0.81901066827595959
sI4
F0.35609162499962177
ssS'2007'
p1668
(dp1669
I0
F0.19511836471862343
sI1
F0.051981046571847177
sI2
F0.400002445673655
sI3
F0.87005674519159093
sI4
F0.62098216031153164
ssS'verder'
p1670
(dp1671
I0
F0.34963790238896747
sI1
F0.82568640021413697
sI2
F0.35946971122317967
sI3
F0.90341486225214618
sI4
F0.80099950592492386
ssS'ziel'
p1672
(dp1673
I0
F0.26193138713057651
sI1
F0.89857421031094065
sI2
F0.86000541200762093
sI3
F-0.27096927809288535
sI4
F0.14477333799606185
ssS'opwindende'
p1674
(dp1675
I0
F1.2340303755171838
sI1
F0.20131185735319251
sI2
F0.86006071424117159
sI3
F0.036305564837547426
sI4
F0.54913434395685434
ssS'slaan'
p1676
(dp1677
I0
F0.131053543788551
sI1
F0.17224427081027885
sI2
F0.93461798092543935
sI3
F0.82655638741887039
sI4
F0.79943138656182033
ssS'2009'
p1678
(dp1679
I0
F0.15148595318990579
sI1
F0.0076933925569748693
sI2
F0.57995875745653502
sI3
F0.071609002920738088
sI4
F0.16843654355261409
ssS'zendt'
p1680
(dp1681
I0
F0.24157491587054924
sI1
F0.80224916713125083
sI2
F0.21907046585588433
sI3
F0.81198136072351801
sI4
F0.97667595554583964
ss.