(dp1
S'jaja'
p2
(dp3
I0
F0.47774488968670303
sI1
F0.59183817447981457
sI2
F0.93301699365290214
sI3
F-0.0050701064356861152
sI4
F0.42360122425755076
ssS'dijk'
p4
(dp5
I0
F0.23800043992483827
sI1
F0.47347405270111093
sI2
F0.7521110180419267
sI3
F0.70266786250961299
sI4
F0.14763327629380707
ssS'kijkcijferkano'
p6
(dp7
I0
F0.75629035802516231
sI1
F0.57874272154780027
sI2
F0.0006913365374220503
sI3
F0.85380017821580423
sI4
F0.72837395171925268
ssS'mensen'
p8
(dp9
I0
F-0.17038800959874681
sI1
F0.28206689597554957
sI2
F0.34273568922670977
sI3
F0.4320124491949896
sI4
F0.72278350724583695
ssS'ron'
p10
(dp11
I0
F-0.012999400735608256
sI1
F0.33143981819991991
sI2
F0.50002235197847111
sI3
F0.052114056090026978
sI4
F0.76329880373393733
ssS'ede'
p12
(dp13
I0
F-0.98674774472651505
sI1
F0.42069020947137004
sI2
F0.68860568114782994
sI3
F1.4142035715943975
sI4
F0.81912459414058036
ssS'eerste'
p14
(dp15
I0
F0.23131650837523973
sI1
F0.83810745397611319
sI2
F0.18543597762150224
sI3
F-0.041103403388035177
sI4
F0.25362421629032128
ssS'tweeten'
p16
(dp17
I0
F-0.080127292273037332
sI1
F0.41896764212455856
sI2
F0.29677028346279766
sI3
F0.51198014642874812
sI4
F0.31812655949146745
ssS'ge'
p18
(dp19
I0
F0.32534715288166699
sI1
F0.67352505772908899
sI2
F0.39629803512159834
sI3
F-0.27236042697756985
sI4
F0.57178287868227229
ssS'sanne'
p20
(dp21
I0
F-0.046635708659703262
sI1
F0.88744103927335261
sI2
F0.43858746321385206
sI3
F0.91929820073512225
sI4
F0.0085239368755371143
ssS'gang'
p22
(dp23
I0
F0.6877033073507326
sI1
F0.21366974622381066
sI2
F0.89605688352156809
sI3
F1.0157480401267083
sI4
F0.27697832548447854
ssS'ga'
p24
(dp25
I0
F-0.41906404835345212
sI1
F0.84949000705562527
sI2
F0.42172284394400317
sI3
F1.4744024986606079
sI4
F0.47725130074348021
ssS'topartikel'
p26
(dp27
I0
F0.9130064593670717
sI1
F0.93881402609087816
sI2
F0.23726077166662876
sI3
F0.81104577599682048
sI4
F0.99586067415061463
ssS'go'
p28
(dp29
I0
F0.69831532817605235
sI1
F0.53922030559102641
sI2
F0.52336452652418142
sI3
F0.51540713951103012
sI4
F0.23677370512524232
ssS'kapoet'
p30
(dp31
I0
F0.020691607680642515
sI1
F0.6611899741160111
sI2
F0.96082508806373457
sI3
F0.86891252482685499
sI4
F0.13180971103824149
ssS'bank'
p32
(dp33
I0
F0.038062659689342325
sI1
F0.76443641437795695
sI2
F0.86559512675834993
sI3
F0.6575680796393788
sI4
F0.57713099721123495
ssS'als'
p34
(dp35
I0
F-0.25014832739494847
sI1
F0.1142806257297608
sI2
F0.8638759719039899
sI3
F0.20206374543664929
sI4
F0.75369491873122718
ssS'misschien'
p36
(dp37
I0
F0.83596629051152427
sI1
F0.075515954206193545
sI2
F0.65472850687811179
sI3
F0.41411924001128947
sI4
F0.25748515916916503
ssS'werkdruk'
p38
(dp39
I0
F0.26087135202235506
sI1
F0.65495652273390581
sI2
F0.070897519556870056
sI3
F0.41512783531142106
sI4
F0.18798200968258308
ssS'inspirerend'
p40
(dp41
I0
F0.019836252456186615
sI1
F0.30928503395265067
sI2
F0.130497104192037
sI3
F0.76169540684720982
sI4
F-0.0020701555292947146
ssS'onderwerp'
p42
(dp43
I0
F0.69442755917197541
sI1
F0.54923641187852146
sI2
F0.38685755522008908
sI3
F-0.13442623839775852
sI4
F0.26221328147591438
ssS'hoezo'
p44
(dp45
I0
F0.28341103281766045
sI1
F0.13144472208434618
sI2
F0.44181675887879412
sI3
F0.36864675980625405
sI4
F0.61928562874768833
ssS'voorzitter'
p46
(dp47
I0
F-0.1502769254565352
sI1
F0.72569944386141272
sI2
F0.73821479684956337
sI3
F0.63326116477648098
sI4
F0.59968877245583241
ssS'telemarketingbureau'
p48
(dp49
I0
F0.72631253157585562
sI1
F0.84747117461717469
sI2
F0.36490170158922713
sI3
F0.082027513333193677
sI4
F0.72516681224518587
ssS'tv'
p50
(dp51
I0
F-0.38493969265055056
sI1
F0.9037405153441882
sI2
F0.39241454556995653
sI3
F0.57104331085629467
sI4
F0.81759423758396577
ssS'terwijl'
p52
(dp53
I0
F1.0393640388141299
sI1
F0.50593959422308621
sI2
F-0.060062371900704403
sI3
F0.26456091243403568
sI4
F0.71780722888522908
ssS'tweet'
p54
(dp55
I0
F0.31100169516770654
sI1
F0.35175099191952924
sI2
F0.80313892393678865
sI3
F0.77641548267151561
sI4
F0.89744933038313135
ssS'dieren'
p56
(dp57
I0
F0.90609022722696098
sI1
F0.92561980673730504
sI2
F0.07809936730708561
sI3
F0.06915601102705568
sI4
F0.2266531619169096
ssS'plezier'
p58
(dp59
I0
F0.58801077962200299
sI1
F0.85275954489250705
sI2
F0.77247239277672908
sI3
F0.54579637987835028
sI4
F0.53709451975671862
ssS'steigers'
p60
(dp61
I0
F0.24602555777736002
sI1
F0.072265684463047056
sI2
F0.39252168335255277
sI3
F0.61946456058085109
sI4
F0.39994764558092749
ssS'x2019'
p62
(dp63
I0
F0.43238800978929387
sI1
F0.33516843533631835
sI2
F0.10482841227064964
sI3
F-0.046970985824722672
sI4
F0.30537702677772105
ssS'bammetje'
p64
(dp65
I0
F0.17387249384224118
sI1
F0.22360535873629256
sI2
F0.33653362898944778
sI3
F0.81567445988042964
sI4
F0.078097458964647731
ssS'spel'
p66
(dp67
I0
F0.47079488496201749
sI1
F0.77524596757359654
sI2
F0.50815226668737123
sI3
F0.48457615741657778
sI4
F0.52778172670577594
ssS'ouwehands'
p68
(dp69
I0
F0.0073346061107375151
sI1
F0.80032691553071733
sI2
F0.30246059378412865
sI3
F0.10337531435924086
sI4
F0.60840506722376897
ssS'sluit'
p70
(dp71
I0
F0.45132243741108613
sI1
F0.69149543329135033
sI2
F0.97445313484336571
sI3
F0.76434656237231102
sI4
F0.55121702090112901
ssS'cultuur'
p72
(dp73
I0
F0.45956700492731478
sI1
F0.76116963213516975
sI2
F0.73878899452886859
sI3
F0.069762946497447492
sI4
F0.5292696295027286
ssS'128'
p74
(dp75
I0
F0.71703004223563183
sI1
F0.70479567975211621
sI2
F0.083661312651649264
sI3
F0.69281648785136007
sI4
F0.64263953704651022
ssS'reizen'
p76
(dp77
I0
F0.46130336940085498
sI1
F0.45845177526995012
sI2
F0.50242253283190697
sI3
F0.35193399037755885
sI4
F0.033166737217018114
ssS'sorry'
p78
(dp79
I0
F-0.21831139298397179
sI1
F0.90417579988553076
sI2
F0.19045950709421733
sI3
F0.38111438071822462
sI4
F0.66074419275065932
ssS'gaet'
p80
(dp81
I0
F0.49681091799111432
sI1
F0.1278883450119967
sI2
F0.7014363357756479
sI3
F0.39261297354278379
sI4
F0.82943620397426265
ssS'gelukkig'
p82
(dp83
I0
F-0.17599889800788171
sI1
F0.87811118751136352
sI2
F0.084804999092944131
sI3
F0.93866758243442183
sI4
F0.98198370463755624
ssS'weten'
p84
(dp85
I0
F0.52167172678102802
sI1
F0.64081029097353881
sI2
F0.4300005674058186
sI3
F0.63373588466105013
sI4
F0.81123464006331647
ssS'mogen'
p86
(dp87
I0
F-0.082071595955013815
sI1
F0.97844659387740673
sI2
F0.52149745087066401
sI3
F0.83887378373406396
sI4
F0.38589500049992304
ssS'begon'
p88
(dp89
I0
F0.61171412882797394
sI1
F0.53783713975641034
sI2
F0.42407655207696304
sI3
F1.1006374359577165
sI4
F0.28352637496930455
ssS'omdat'
p90
(dp91
I0
F0.37046518228883246
sI1
F0.21318362415163022
sI2
F0.31242248681476054
sI3
F0.36569077639742087
sI4
F0.65418791062337156
ssS'niets'
p92
(dp93
I0
F0.64003994328009395
sI1
F0.49372739199997301
sI2
F0.4807070122031773
sI3
F-0.15558313102201615
sI4
F0.74845724415413761
ssS'intrigetende'
p94
(dp95
I0
F0.61250232372746827
sI1
F0.38178126105231269
sI2
F0.62442439631685853
sI3
F0.15415829385311311
sI4
F0.88875257599491508
ssS'gekken'
p96
(dp97
I0
F-0.25357590217099696
sI1
F0.69596968467186349
sI2
F1.1081812959940842
sI3
F1.3855612359409688
sI4
F0.93524779231960231
ssS'nooit'
p98
(dp99
I0
F-0.026161886127888591
sI1
F0.62888477268905796
sI2
F0.12680224078626981
sI3
F0.48289642355486806
sI4
F0.60364914250086799
ssS'uren'
p100
(dp101
I0
F0.15421283508332642
sI1
F0.50310553726852958
sI2
F0.65804996606309318
sI3
F0.097313658398116468
sI4
F0.45439043740440588
ssS'ging'
p102
(dp103
I0
F0.13500087985816292
sI1
F0.022504889560119062
sI2
F0.69153833107318563
sI3
F0.71022661463185888
sI4
F0.28378474483756549
ssS'aflevering'
p104
(dp105
I0
F0.53481499259525134
sI1
F0.34460985501150337
sI2
F0.43527024372399281
sI3
F-0.53086261019094505
sI4
F0.11356281170135396
ssS'maal'
p106
(dp107
I0
F0.46428409743781868
sI1
F0.045706152370162879
sI2
F0.52280485426559609
sI3
F0.97388186298020696
sI4
F0.63930741999002161
ssS'weinig'
p108
(dp109
I0
F0.26602238507364095
sI1
F0.76287987036011795
sI2
F0.027998920251311673
sI3
F1.051186037703379
sI4
F0.91274764313754353
ssS'neukertje'
p110
(dp111
I0
F0.67134417025235393
sI1
F0.64209110983769579
sI2
F0.78431638029275352
sI3
F0.27785931124014612
sI4
F0.3521977815392382
ssS'gemaakt'
p112
(dp113
I0
F0.56018840056224595
sI1
F0.4879115353981372
sI2
F0.42283923946245155
sI3
F0.76715575676388792
sI4
F0.85476935044246494
ssS'speciaalvoorsingles'
p114
(dp115
I0
F0.29435091146505443
sI1
F0.17054738221455676
sI2
F0.075909960643235713
sI3
F0.28414229933753687
sI4
F0.32058624681471298
ssS'twitterlijst'
p116
(dp117
I0
F0.15412751529404212
sI1
F0.36878440814337049
sI2
F0.27068253662604413
sI3
F0.3764594248955202
sI4
F0.25366792146259359
ssS'top2000'
p118
(dp119
I0
F-0.2686814216843435
sI1
F0.82877201986395255
sI2
F0.98812978103884286
sI3
F0.80010450998533611
sI4
F0.84617177876917582
ssS'donkere'
p120
(dp121
I0
F0.58235263779752089
sI1
F0.51300062944474634
sI2
F0.29441471231240152
sI3
F-0.17038494095376472
sI4
F0.68524313025591332
ssS'ramen'
p122
(dp123
I0
F0.43061544812921088
sI1
F0.72864419994303287
sI2
F0.21216756028046366
sI3
F0.24871096535434203
sI4
F0.51400367732744412
ssS'mirjam'
p124
(dp125
I0
F0.20469909627545577
sI1
F0.32558059301467501
sI2
F0.65583149872775293
sI3
F0.61114860435899698
sI4
F0.02300513478818254
ssS'leven'
p126
(dp127
I0
F0.54686530121954446
sI1
F0.53457465847235563
sI2
F0.78488594056492555
sI3
F0.41700519459976643
sI4
F0.71028715371997209
ssS'kerststemming'
p128
(dp129
I0
F-0.2249178147126005
sI1
F0.85770098866820965
sI2
F0.28130366944374247
sI3
F0.58352063241910546
sI4
F0.0016537438020212776
ssS'worden'
p130
(dp131
I0
F0.98160550533540547
sI1
F0.64644617825304362
sI2
F0.33601192384015466
sI3
F-0.060506889491191575
sI4
F1.0590989358321143
ssS'eva'
p132
(dp133
I0
F0.45246495037187701
sI1
F0.78240940475682841
sI2
F0.59870078689666861
sI3
F0.24907963978297329
sI4
F0.6155016567815359
ssS'trots'
p134
(dp135
I0
F0.54882109866186957
sI1
F0.036784845078300932
sI2
F0.59339399654601044
sI3
F0.14291195415078234
sI4
F0.14720936831719367
ssS'eoeva'
p136
(dp137
I0
F-0.25724529007694719
sI1
F0.18926052125390835
sI2
F0.46540971275486348
sI3
F1.607754799184927
sI4
F0.45498673638381937
ssS'p'
(dp138
I0
F0.56998236165782445
sI1
F0.49317214341008497
sI2
F0.51185430791308961
sI3
F-0.29104518654404254
sI4
F0.77184926069446924
ssS'kinderlijke'
p139
(dp140
I0
F0.15036918199866245
sI1
F0.4936557560394994
sI2
F0.5116328173658069
sI3
F0.21878150197073401
sI4
F0.71348133246841272
ssS'directie'
p141
(dp142
I0
F0.61069914583345941
sI1
F0.21652856259475084
sI2
F0.10303892708216369
sI3
F0.10144264129367589
sI4
F0.039707947248939779
ssS'productief'
p143
(dp144
I0
F0.16203948636662779
sI1
F0.97724076501138035
sI2
F0.2820638571460008
sI3
F0.59598228913077278
sI4
F0.39880426018000797
ssS'opgestuurd'
p145
(dp146
I0
F-0.13933434014598756
sI1
F0.76660290075734894
sI2
F0.52763593754381743
sI3
F1.1290614573384754
sI4
F0.73082792349946091
ssS'programma'
p147
(dp148
I0
F0.60704900401985529
sI1
F-0.1147066286303733
sI2
F0.22795866355694472
sI3
F0.28983873177150066
sI4
F0.75687972736500964
ssS'depelgrimscode'
p149
(dp150
I0
F0.54969065951556251
sI1
F0.74733929644725616
sI2
F0.19861744912792259
sI3
F0.31876460299643894
sI4
F0.75536285191140784
ssS'plaatje'
p151
(dp152
I0
F0.72893913620289263
sI1
F0.56367323825118054
sI2
F0.71792836919751246
sI3
F0.89469678946624009
sI4
F0.22522866195741148
ssS'zo'
p153
(dp154
I0
F-0.84686162882649851
sI1
F0.18451572515075629
sI2
F0.092226226481656084
sI3
F1.141867744599838
sI4
F0.88204716869880218
ssS'tel'
p155
(dp156
I0
F0.40144991244624012
sI1
F0.08938416917539517
sI2
F0.026100590048811288
sI3
F0.38588041495599168
sI4
F0.72224289130425934
ssS'villa'
p157
(dp158
I0
F0.70694739691087627
sI1
F0.74997121865698124
sI2
F0.37493551753010707
sI3
F0.58542372273723375
sI4
F0.24485393338163647
ssS'altijd'
p159
(dp160
I0
F0.63687523085752584
sI1
F0.44439204297148049
sI2
F0.34037156837870758
sI3
F-0.99044325620218299
sI4
F0.608097039943577
ssS'creatieve'
p161
(dp162
I0
F-0.14563939329566139
sI1
F0.84877378997135133
sI2
F0.52313678336887992
sI3
F0.74607634035102854
sI4
F0.36368329777028502
ssS'haar'
p163
(dp164
I0
F0.56686862553975537
sI1
F0.6163566493675865
sI2
F0.35159471257786651
sI3
F0.77345417724252097
sI4
F0.62229631576227218
ssS'straatkinderen'
p165
(dp166
I0
F0.38170880210580282
sI1
F0.15395263201892026
sI2
F0.5912847565881042
sI3
F0.70387394956328186
sI4
F0.031791570388686345
ssS'linksboven'
p167
(dp168
I0
F0.71821765252242065
sI1
F0.70975423936417215
sI2
F0.0064114743379062242
sI3
F-0.11562717881951026
sI4
F0.68532907919448938
ssS'hilversum'
p169
(dp170
I0
F0.82743736827951553
sI1
F0.86144104687873135
sI2
F0.78808728306639686
sI3
F0.77761374567769892
sI4
F0.4945730736923532
ssS'kunnen'
p171
(dp172
I0
F0.66518247789407769
sI1
F0.84044466994987077
sI2
F0.82768201414594944
sI3
F0.50670761664766339
sI4
F0.46502992547702621
ssS'past'
p173
(dp174
I0
F0.43183299738130493
sI1
F0.23824501324587347
sI2
F0.10866846983917527
sI3
F0.57169751518372025
sI4
F0.96469920412950894
ssS'rijdt'
p175
(dp176
I0
F0.45330951266577146
sI1
F0.79619871901443684
sI2
F0.60676740898331605
sI3
F0.32114482333724254
sI4
F0.89140060280871791
ssS'cost'
p177
(dp178
I0
F-0.13080529598305174
sI1
F0.95249991462708516
sI2
F0.76770319420172495
sI3
F0.57372510633613194
sI4
F0.045691528442886542
ssS'evangelisten'
p179
(dp180
I0
F0.68157275190808708
sI1
F0.40427053327252177
sI2
F0.45557983068304819
sI3
F0.26758807817856983
sI4
F0.61074382396603277
ssS'pedo'
p181
(dp182
I0
F0.51202407081406665
sI1
F0.84688266749389118
sI2
F0.93528622287122576
sI3
F0.15594902146723807
sI4
F0.9492159990154081
ssS'makers'
p183
(dp184
I0
F0.079997181331924475
sI1
F0.91938994117102713
sI2
F0.52249366232566519
sI3
F0.23215091480367234
sI4
F0.85017548137521137
ssS'wereldvreemd'
p185
(dp186
I0
F0.61394602556636579
sI1
F0.64805745017253102
sI2
F0.62081747573441703
sI3
F0.2307255427073388
sI4
F0.14334537936067379
ssS'even'
p187
(dp188
I0
F0.83600726009394188
sI1
F0.69014012398435975
sI2
F0.24574865845078994
sI3
F-0.30874787568470824
sI4
F1.0508295807421644
ssS'goed'
p189
(dp190
I0
F-0.35510626482897606
sI1
F0.97755082531408699
sI2
F0.32055481898501853
sI3
F1.073392143545703
sI4
F-0.43021451784342485
ssS'meezingen'
p191
(dp192
I0
F0.085849132396424929
sI1
F0.29855381942200859
sI2
F0.24470058113141913
sI3
F0.11443002186560713
sI4
F0.12349903800925227
ssS'xefviteit'
p193
(dp194
I0
F0.5489537205081938
sI1
F0.80214724847304175
sI2
F0.83869935629761816
sI3
F-0.26856057229330693
sI4
F0.56814876966771344
ssS'ned'
p195
(dp196
I0
F0.70257754156448649
sI1
F0.28992809422463117
sI2
F0.063505585062389791
sI3
F0.98293910871746526
sI4
F0.39967963463560652
ssS'nee'
p197
(dp198
I0
F-0.41609613751518953
sI1
F0.78236851720432909
sI2
F0.97842767239502293
sI3
F0.77078088240927956
sI4
F0.20841020789266693
ssS'erg'
p199
(dp200
I0
F0.60164579102984106
sI1
F0.90844806161088199
sI2
F0.16256910971164854
sI3
F0.38012680652503644
sI4
F0.81366510214530741
ssS'lief'
p201
(dp202
I0
F0.012886651468435657
sI1
F0.94687051870286487
sI2
F0.47294475136604502
sI3
F0.44447721190684819
sI4
F0.11560598819005706
ssS'normen'
p203
(dp204
I0
F0.71891733685162507
sI1
F0.36828784349670651
sI2
F0.68469244598126289
sI3
F0.55787710894852249
sI4
F0.21121805270829522
ssS'geloven'
p205
(dp206
I0
F0.12023644532730583
sI1
F0.032414836043799335
sI2
F0.065417256717898831
sI3
F0.087007129317755852
sI4
F0.044992041149997976
ssS'tips'
p207
(dp208
I0
F-0.016478039083931511
sI1
F0.35994367345260331
sI2
F0.31076561558135496
sI3
F0.85203276495383329
sI4
F0.32838991765882664
ssS'gerformeerd'
p209
(dp210
I0
F0.64567101644780456
sI1
F0.3474493093111003
sI2
F0.57245482076457388
sI3
F0.12211313309045935
sI4
F0.55462306131541717
ssS'mee'
p211
(dp212
I0
F0.53039330903708692
sI1
F0.13901305162361655
sI2
F0.45771727792708861
sI3
F0.042261363499237078
sI4
F0.65485787509830784
ssS'vorig'
p213
(dp214
I0
F0.17515954939018216
sI1
F0.18810774615359283
sI2
F0.97978750410759863
sI3
F0.8701001463927116
sI4
F0.16386753835351373
ssS'pelgrimscodedingestocht'
p215
(dp216
I0
F0.20322584366575588
sI1
F0.18916649505883765
sI2
F0.48207509241932367
sI3
F0.017873500599906444
sI4
F0.46537259345804555
ssS'iemand'
p217
(dp218
I0
F0.7481374590858938
sI1
F0.65950396665254607
sI2
F0.78084655380984813
sI3
F0.60175731329139714
sI4
F0.51448887351929118
ssS'koffiezetapparaat'
p219
(dp220
I0
F0.54789837743911307
sI1
F0.9533091429438818
sI2
F0.59144946112561358
sI3
F0.13516299742216412
sI4
F0.4189458125012504
ssS'radicale'
p221
(dp222
I0
F0.22433884915227525
sI1
F0.71293773100884583
sI2
F0.58424948939298427
sI3
F-0.33315088344977561
sI4
F0.052218733096196929
ssS'paradijsvogel'
p223
(dp224
I0
F0.73788316502905449
sI1
F0.69355503403894303
sI2
F0.78007409835551267
sI3
F0.18830266386285094
sI4
F0.1661905820789244
ssS'boeiend'
p225
(dp226
I0
F0.88174314110577057
sI1
F0.27998863901409382
sI2
F0.44258267158721126
sI3
F0.05403059531171351
sI4
F0.56472884010194391
ssS'here'
p227
(dp228
I0
F0.83739864590340851
sI1
F0.028001560569048376
sI2
F0.75516270595025348
sI3
F0.47544266690387982
sI4
F0.8473802278442818
ssS'natuurfilms'
p229
(dp230
I0
F0.71945245244983824
sI1
F0.95988141793137349
sI2
F0.82783180362936648
sI3
F-0.12419447725539146
sI4
F0.39090582989735728
ssS'met'
p231
(dp232
I0
F-0.11154784899198149
sI1
F0.29113925776432681
sI2
F0.2104720610054493
sI3
F-0.92105775982895355
sI4
F0.07158676074900909
ssS'evangelieverkondiging'
p233
(dp234
I0
F0.80873936328605445
sI1
F0.27741354903859877
sI2
F0.98409852369209372
sI3
F0.88852338801589281
sI4
F0.86364489184602944
ssS'nrcv'
p235
(dp236
I0
F0.13971092751049791
sI1
F0.43842804556942194
sI2
F0.53327006003901001
sI3
F-0.12246581413516364
sI4
F0.029888059962505993
ssS'studio'
p237
(dp238
I0
F0.032454476605464702
sI1
F0.9214653332137509
sI2
F0.0011102009514211771
sI3
F0.24351670848156937
sI4
F0.085544542975036941
ssS'sprakeloos'
p239
(dp240
I0
F0.66577946094085638
sI1
F0.041880325264209622
sI2
F0.77801995284165748
sI3
F0.19183350087227219
sI4
F0.10843508936887641
ssS'vrederust'
p241
(dp242
I0
F0.33701665041865547
sI1
F0.20205745740743822
sI2
F0.497732067456296
sI3
F-0.2159464486953763
sI4
F0.47165249290130723
ssS'alone'
p243
(dp244
I0
F0.12185594602942221
sI1
F0.36922436028403038
sI2
F0.1684560358823011
sI3
F-0.28080151488452193
sI4
F0.39130770454785491
ssS'belichten'
p245
(dp246
I0
F0.11804743739678925
sI1
F0.26825686306691165
sI2
F0.40054116180339711
sI3
F-0.22991321776074486
sI4
F0.44307814031250431
ssS'uitzending'
p247
(dp248
I0
F0.84230718550159156
sI1
F0.16636346026445975
sI2
F0.16888588497531326
sI3
F-0.35977820099069352
sI4
F0.10143814456164732
ssS'toen'
p249
(dp250
I0
F0.64429286924788254
sI1
F0.26352903953660184
sI2
F0.64731265164375906
sI3
F0.1558922001947726
sI4
F0.69961803467021022
ssS'maken'
p251
(dp252
I0
F0.65360064204585733
sI1
F0.030694152157179487
sI2
F0.40954690671288801
sI3
F0.63636253677496746
sI4
F0.69601593913479831
ssS'gasten'
p253
(dp254
I0
F0.41137019275578474
sI1
F0.95625829914419402
sI2
F0.34454159276705359
sI3
F1.692544151092455
sI4
F-0.16925187004420544
ssS'kids'
p255
(dp256
I0
F0.24190084452148075
sI1
F0.056436772689473585
sI2
F0.42373796904389938
sI3
F0.16994532227519407
sI4
F0.724015045522585
ssS'gouden'
p257
(dp258
I0
F-0.068112455756872747
sI1
F0.69679770090328319
sI2
F0.62675936397108067
sI3
F0.257606517956528
sI4
F0.74010102992073101
ssS'gezellig'
p259
(dp260
I0
F0.65925060507137256
sI1
F0.20066024334551663
sI2
F0.60503131621457884
sI3
F0.2252832744162018
sI4
F1.0665147643287958
ssS'tegen'
p261
(dp262
I0
F0.53153161963832496
sI1
F0.81402030068082787
sI2
F0.8275627505266413
sI3
F0.76709954840153993
sI4
F0.59245072612554994
ssS'k'
(dp263
I0
F0.0084901219985483462
sI1
F0.50036778289364925
sI2
F0.48325907491784592
sI3
F0.54861610283450524
sI4
F0.19720368713627909
ssS'jay'
p264
(dp265
I0
F0.5666833770273243
sI1
F0.55120061050476254
sI2
F0.5897094486059653
sI3
F0.84360818008086746
sI4
F0.67432021460007774
ssS'culpa'
p266
(dp267
I0
F-0.015330377631746871
sI1
F0.18939723743769765
sI2
F0.23104634699201976
sI3
F0.40710674130198282
sI4
F0.69634386788703495
ssS'zorgt'
p268
(dp269
I0
F0.16586964702721227
sI1
F0.15042008399788362
sI2
F0.36329036236236439
sI3
F0.76110994210244909
sI4
F0.26258366296799351
ssS'oeh'
p270
(dp271
I0
F0.59037162186880976
sI1
F0.022870605120186988
sI2
F0.57300705000845309
sI3
F0.56013242471346181
sI4
F0.25366544881293701
ssS'populaire'
p272
(dp273
I0
F0.4399232648159167
sI1
F0.21386957640118015
sI2
F0.16930190319111113
sI3
F1.1711512704311835
sI4
F0.49638071166096281
ssS'jamoet'
p274
(dp275
I0
F-0.026154035208234241
sI1
F0.36324748976254395
sI2
F0.56140173353327871
sI3
F0.56443741668715963
sI4
F0.96429134484613011
ssS'ploeg'
p276
(dp277
I0
F0.15035495096720022
sI1
F0.77357424882684322
sI2
F0.83466557271230968
sI3
F1.2000659346716003
sI4
F0.003319742358008491
ssS'christenen'
p278
(dp279
I0
F1.0997789468242851
sI1
F0.62013582664756006
sI2
F0.25028663603949231
sI3
F-0.3427313290355537
sI4
F0.59255827841180853
ssS'muziekwijk'
p280
(dp281
I0
F-0.074959023518273896
sI1
F0.8874806149651111
sI2
F0.37259781809887466
sI3
F0.74636995686839813
sI4
F0.66606574090275195
ssS'hoofdrol'
p282
(dp283
I0
F-0.19807621539802586
sI1
F0.60986495645686456
sI2
F0.38637889660305585
sI3
F0.75671426085982663
sI4
F0.18004400614647059
ssS'starring'
p284
(dp285
I0
F0.66869800581463201
sI1
F0.47944599217902178
sI2
F0.94908033378682655
sI3
F0.48223171949328325
sI4
F0.079109254600316939
ssS'maakt'
p286
(dp287
I0
F0.27396728571985818
sI1
F0.69006053793759137
sI2
F0.67178228437693499
sI3
F1.1657975729429471
sI4
F0.19312086738786796
ssS'vanwege'
p288
(dp289
I0
F0.98529632225109531
sI1
F0.65774491217816999
sI2
F0.77910005715954644
sI3
F0.1888716272275682
sI4
F0.69649739609231132
ssS'wil'
p290
(dp291
I0
F-0.34287270986419377
sI1
F0.62365972886783227
sI2
F0.23587468977039588
sI3
F0.092467839995660911
sI4
F0.71291183664407953
ssS'hardlopen'
p292
(dp293
I0
F0.80532162966298837
sI1
F0.89657080701064185
sI2
F0.56690645709275633
sI3
F0.64774222037962059
sI4
F0.89323449496843432
ssS'schijnt'
p294
(dp295
I0
F0.76080786617407703
sI1
F0.62224239649756374
sI2
F0.46349345922813801
sI3
F-0.1799264996757983
sI4
F0.084334911240714003
ssS'kinderbescherming'
p296
(dp297
I0
F0.98332187904222479
sI1
F0.89390705492204181
sI2
F0.06409075613867049
sI3
F0.01345955190697086
sI4
F0.51989498697423364
ssS'sterk'
p298
(dp299
I0
F-0.32744596096204448
sI1
F0.76458146329276533
sI2
F0.17651794896092896
sI3
F0.47028725169896679
sI4
F0.86489461944869561
ssS'uitgemolken'
p300
(dp301
I0
F0.59948541820917167
sI1
F0.91097497784569204
sI2
F0.11241116729672632
sI3
F0.65982913079516403
sI4
F0.37022438765858229
ssS'beeld'
p302
(dp303
I0
F0.82282037563503296
sI1
F0.54627469366888559
sI2
F0.4772598619259254
sI3
F0.0082846559701136128
sI4
F0.014840733755080167
ssS'leuke'
p304
(dp305
I0
F0.11197109704756582
sI1
F0.84525041062081629
sI2
F0.9324293100800719
sI3
F0.061160056685167136
sI4
F0.2999854685181193
ssS'directeur'
p306
(dp307
I0
F0.068801652357848311
sI1
F0.84509758969697957
sI2
F0.81015093210527966
sI3
F0.25953717963963413
sI4
F0.77440666329879315
ssS'rkk'
p308
(dp309
I0
F0.56442734371809267
sI1
F0.15665783261688021
sI2
F0.54020274905243915
sI3
F0.8796477401174988
sI4
F0.57459844797214765
ssS'zit'
p310
(dp311
I0
F0.5171890774300244
sI1
F0.27061497306862375
sI2
F0.65895973048967049
sI3
F0.099706985634793951
sI4
F0.79725753542357802
ssS'telt'
p312
(dp313
I0
F1.0922081671014923
sI1
F0.48300708447054536
sI2
F0.47481616116964104
sI3
F-0.041159322125676259
sI4
F0.53255133709149782
ssS'gaat'
p314
(dp315
I0
F1.5203680776385362
sI1
F0.96004889561597417
sI2
F0.92580256886932166
sI3
F-0.093224648863868095
sI4
F-0.37880950380548534
ssS'chi'
p316
(dp317
I0
F0.81388864557968255
sI1
F0.8700136221092688
sI2
F0.91767715278102036
sI3
F0.67285318170152775
sI4
F0.67066369683497018
ssS'geloofdattochniet'
p318
(dp319
I0
F0.13033913955614843
sI1
F0.28289970262017833
sI2
F0.57650153336086929
sI3
F0.25543358008521533
sI4
F0.36207359794744826
ssS'geregeld'
p320
(dp321
I0
F0.0060778613839538266
sI1
F0.45838323673984843
sI2
F0.34482192869441963
sI3
F0.38763795106473825
sI4
F0.17564998636658316
ssS'zorg'
p322
(dp323
I0
F0.62548317587434799
sI1
F0.051466250112715696
sI2
F0.11379587118575131
sI3
F0.28698855839412157
sI4
F0.15864678618363301
ssS'geval'
p324
(dp325
I0
F1.0038793460828643
sI1
F0.40025225704289652
sI2
F0.66180443886309948
sI3
F0.65169106677280331
sI4
F0.26140631134345105
ssS'camera'
p326
(dp327
I0
F0.33809091068730912
sI1
F0.17369969625477227
sI2
F0.85172399751971095
sI3
F0.88700173649336256
sI4
F0.78102190143644323
ssS'gewaardeerde'
p328
(dp329
I0
F0.064734632355873775
sI1
F-0.3613054133746415
sI2
F0.54766993332171776
sI3
F0.96752581179144292
sI4
F0.022358004335261632
ssS'gaaf'
p330
(dp331
I0
F0.71729378630295593
sI1
F0.50039883599220303
sI2
F0.49429879899351215
sI3
F0.50876569043428121
sI4
F0.85337548015591658
ssS'6'
(dp332
I0
F0.84421748639219274
sI1
F0.63482953760231509
sI2
F-0.014478212167916312
sI3
F0.36079844343838141
sI4
F0.10627812907733933
ssS'zin'
p333
(dp334
I0
F0.81901581776861332
sI1
F0.84851038354322306
sI2
F0.036899860909123498
sI3
F-0.037983886062085553
sI4
F0.86865082015428552
ssS'ontzettend'
p335
(dp336
I0
F-0.0070694623208854418
sI1
F0.19948804447703208
sI2
F0.15148955079378243
sI3
F0.98324145741775693
sI4
F0.10337862806995352
ssS'visie'
p337
(dp338
I0
F0.33421375750787369
sI1
F0.93600818122375684
sI2
F0.42231525437595152
sI3
F0.1222921635705172
sI4
F0.67607377824769543
ssS'treinen'
p339
(dp340
I0
F1.3459536251823621
sI1
F0.96717795800783946
sI2
F0.3681705172167824
sI3
F0.2028487750560766
sI4
F0.4741622054691696
ssS'vrouwenmagazine'
p341
(dp342
I0
F-0.090506875305247356
sI1
F0.1012988630448121
sI2
F0.67948067413506041
sI3
F0.59819190244932263
sI4
F0.48650058055762163
ssS'door'
p343
(dp344
I0
F0.28990005609736802
sI1
F0.013376633957089516
sI2
F0.58168454925847102
sI3
F0.39086648918675071
sI4
F-0.010161882299230202
ssS'komt'
p345
(dp346
I0
F0.5888491155837543
sI1
F0.68338953797500668
sI2
F0.78150245502206195
sI3
F0.26717290874196747
sI4
F0.14789470073446889
ssS'prachtige'
p347
(dp348
I0
F0.061631175655415538
sI1
F0.70959214958601891
sI2
F0.014850197779850778
sI3
F0.17817591062912724
sI4
F0.57530773274708202
ssS'christelijk'
p349
(dp350
I0
F0.70537430857720096
sI1
F1.1076132675091754
sI2
F0.29194151408001701
sI3
F0.19363119086503305
sI4
F1.0314738442511429
ssS'haha'
p351
(dp352
I0
F0.31951509041956971
sI1
F0.41957809406036084
sI2
F0.57736917127431164
sI3
F0.87459036624481468
sI4
F-0.013305497245217556
ssS'ook'
p353
(dp354
I0
F-0.25287697291007777
sI1
F0.9053337627928052
sI2
F-0.034895141079635809
sI3
F0.061023635125796963
sI4
F1.0413319493232147
ssS'laatste'
p355
(dp356
I0
F0.081182992886232652
sI1
F0.51063220159192257
sI2
F0.77216420394273511
sI3
F-0.044884228297671337
sI4
F0.6265465785600004
ssS'frozenplanet'
p357
(dp358
I0
F0.86177121862181727
sI1
F0.67668913265850972
sI2
F0.69990978684559557
sI3
F0.40999791828391419
sI4
F0.919385755718093
ssS'portretserie'
p359
(dp360
I0
F-0.42291443297866799
sI1
F0.60859623300639853
sI2
F0.43777423071116128
sI3
F0.65620141115119979
sI4
F0.84415260935909442
ssS'ware'
p361
(dp362
I0
F0.91815321109354997
sI1
F1.001711032332365
sI2
F-0.014110432556775899
sI3
F0.10084399903183064
sI4
F0.66252492184610356
ssS'eotest'
p363
(dp364
I0
F0.14122764305077648
sI1
F0.30775411154622273
sI2
F0.50895453233999188
sI3
F0.19317180023890734
sI4
F0.96585281605060314
ssS'me'
p365
(dp366
I0
F0.12993386499924384
sI1
F0.24208380759779052
sI2
F0.79320282502422401
sI3
F0.53316492600580256
sI4
F0.22899880315614443
ssS'eoers'
p367
(dp368
I0
F0.39408688557348431
sI1
F0.17006759061118804
sI2
F0.97278619765062346
sI3
F0.45288445755538942
sI4
F0.17867207071674024
ssS'account'
p369
(dp370
I0
F0.28797744214984994
sI1
F0.77362971557075577
sI2
F0.16197007155553184
sI3
F0.49647622760013055
sI4
F0.41134066656992868
ssS'f'
(dp371
I0
F0.69147812010241538
sI1
F0.90335984617467779
sI2
F0.073737378314604071
sI3
F0.35349638505373976
sI4
F0.22893078827225874
ssS'redactie'
p372
(dp373
I0
F0.70180396822411439
sI1
F0.7103860322443305
sI2
F0.87786314694515122
sI3
F0.17342264211675168
sI4
F0.71093194452190045
ssS'ijsberen'
p374
(dp375
I0
F0.56657137548591141
sI1
F0.81252655208303837
sI2
F0.035445498386984277
sI3
F0.78591832048342647
sI4
F0.8486225288254482
ssS'mn'
p376
(dp377
I0
F-0.0019376299917124454
sI1
F0.45756290534458838
sI2
F0.39199971150407376
sI3
F1.0287455389346671
sI4
F0.80704423890371335
ssS'reportage'
p378
(dp379
I0
F0.72316752327554812
sI1
F0.12524471576639168
sI2
F0.63765705603435907
sI3
F0.52473595463901268
sI4
F0.044863813771115452
ssS'iedereen'
p380
(dp381
I0
F0.39947560533643711
sI1
F0.024173309840572973
sI2
F0.97348413172394821
sI3
F1.1283403779653092
sI4
F0.6168457234441076
ssS'goeie'
p382
(dp383
I0
F0.24444839850078495
sI1
F0.52450884508361306
sI2
F0.39954256889307488
sI3
F0.48362120510253209
sI4
F0.79258968876916935
ssS'nieuwjaar'
p384
(dp385
I0
F0.075359372034823083
sI1
F0.036888680982248317
sI2
F0.67409259960546375
sI3
F0.40870854351431929
sI4
F0.87596338385902883
ssS'den'
p386
(dp387
I0
F0.57527552129403781
sI1
F0.72426555795037173
sI2
F0.57228312769487655
sI3
F-0.31439648804587006
sI4
F0.72161379413994298
ssS'simpel'
p388
(dp389
I0
F0.93617281149345022
sI1
F0.36975983009217805
sI2
F0.038383123729083209
sI3
F0.52776308551649564
sI4
F0.77490310210887037
ssS'bennekom'
p390
(dp391
I0
F-0.023874045069432935
sI1
F0.3556158610095223
sI2
F0.053220226516190301
sI3
F0.34455934211004635
sI4
F0.86570312047196996
ssS'gestolen'
p392
(dp393
I0
F0.83119669418886866
sI1
F0.87710702545041519
sI2
F0.75577960843080128
sI3
F0.048644831617899509
sI4
F0.81160420312253623
ssS'meer'
p394
(dp395
I0
F0.21570584364527109
sI1
F0.10794624233901387
sI2
F0.18406924817370551
sI3
F0.98814288853484911
sI4
F0.41552566976793348
ssS'want'
p396
(dp397
I0
F0.8341684402745202
sI1
F0.12867733021050379
sI2
F0.84844321454016347
sI3
F0.63282807837795374
sI4
F0.6421869051480108
ssS'soembaplein'
p398
(dp399
I0
F0.41248635589425603
sI1
F0.16857693269301521
sI2
F0.63294665924870375
sI3
F0.54037718892101916
sI4
F0.53153333621068288
ssS'winston'
p400
(dp401
I0
F0.20809079382820878
sI1
F0.85036986143801552
sI2
F0.88783535317585149
sI3
F0.12920133820002586
sI4
F0.14696229461906457
ssS'neemt'
p402
(dp403
I0
F0.51822058479328825
sI1
F0.33115161285055167
sI2
F0.50897169120975949
sI3
F0.85532815374094995
sI4
F0.014642339326384297
ssS'thuis'
p404
(dp405
I0
F0.095714398011165686
sI1
F0.81083400916656678
sI2
F0.47157271361023828
sI3
F0.16330190896097962
sI4
F0.53332035237451714
ssS'wauw'
p406
(dp407
I0
F1.0474115854121848
sI1
F0.098947617962174661
sI2
F0.14830971405982313
sI3
F0.043454542461536134
sI4
F0.71944800896309713
ssS'coltrane'
p408
(dp409
I0
F0.020961826573905742
sI1
F0.27687507947159018
sI2
F0.7939258387728052
sI3
F0.39275783304175849
sI4
F0.73387808564517287
ssS'latersz'
p410
(dp411
I0
F0.5486006735922444
sI1
F0.50699390285428025
sI2
F0.58681615273726895
sI3
F0.86579810300391058
sI4
F0.41414370165676107
ssS'kijk'
p412
(dp413
I0
F1.3309484459679199
sI1
F0.7659569154123641
sI2
F0.37466435930500902
sI3
F0.1564341453095823
sI4
F0.85573923576458277
ssS'ondertiteld'
p414
(dp415
I0
F0.73784594989598151
sI1
F0.91790447966092592
sI2
F0.11901746835540337
sI3
F-0.20632947246550543
sI4
F0.96646097634465178
ssS'mevrouw'
p416
(dp417
I0
F0.39169936771651132
sI1
F0.1696440843765476
sI2
F0.24202358854588446
sI3
F0.19931949842400648
sI4
F0.10192777760433158
ssS'revolutionaire'
p418
(dp419
I0
F0.65615448721331848
sI1
F0.045427458862084387
sI2
F0.88452428475329081
sI3
F0.25358288069739443
sI4
F0.07315347278368893
ssS'!'
(dp420
I0
F0.49086103654217911
sI1
F0.51118237627578034
sI2
F0.25019781852627099
sI3
F0.9681941010634898
sI4
F0.71750396262162575
ssS'drama'
p421
(dp422
I0
F0.42051675574114955
sI1
F0.14013813036407455
sI2
F0.96431938441548271
sI3
F0.9643917447665783
sI4
F0.040974748445289713
ssS'stil'
p423
(dp424
I0
F0.42394260067836204
sI1
F0.82225803048326906
sI2
F0.21831376944165701
sI3
F0.92225205251889109
sI4
F0.28059289096777956
ssS'hoe'
p425
(dp426
I0
F0.53168422811133231
sI1
F0.3660423782455583
sI2
F0.55322421069338124
sI3
F0.057268288214254802
sI4
F0.89226181954214268
ssS'aantal'
p427
(dp428
I0
F0.29417191808304283
sI1
F0.54283737790809838
sI2
F0.89653115333049072
sI3
F0.11097074818519434
sI4
F0.6797390259369519
ssS'helden'
p429
(dp430
I0
F0.71347369473733069
sI1
F0.22601072595943381
sI2
F0.25789819199218239
sI3
F0.59414554386159102
sI4
F0.85835835948840344
ssS'eng'
p431
(dp432
I0
F0.7577088687988961
sI1
F0.83598509834717027
sI2
F0.25654128533308007
sI3
F-0.040662584802097397
sI4
F0.24584622296753841
ssS'gekeken'
p433
(dp434
I0
F0.72228809023899943
sI1
F0.98477347667337722
sI2
F0.46191698855954205
sI3
F0.25276934906412085
sI4
F0.37038848478774317
ssS'verschil'
p435
(dp436
I0
F0.28210414198976863
sI1
F-0.039190271729721698
sI2
F0.95950091491025247
sI3
F0.94071717637991148
sI4
F0.24554059783829951
ssS'desilu'
p437
(dp438
I0
F0.2193106028925354
sI1
F0.11692713191466131
sI2
F0.51355829228119354
sI3
F0.15505033274768354
sI4
F0.76964811391594246
ssS'programmas'
p439
(dp440
I0
F0.54532150143597802
sI1
F0.5111277844174178
sI2
F0.28025811398238454
sI3
F-0.3622765711779351
sI4
F0.98669447658060072
ssS'1'
(dp441
I0
F0.65018967459986599
sI1
F0.42954031989650387
sI2
F0.30483777738645046
sI3
F-0.74413280165734963
sI4
F0.16643985115086124
ssS'xefns'
p442
(dp443
I0
F0.29669705719516837
sI1
F0.97901118969720347
sI2
F0.18398697692359911
sI3
F0.324970728008103
sI4
F0.24036342444964462
ssS'fotoshoot'
p444
(dp445
I0
F0.7799404123266761
sI1
F0.70578640244512314
sI2
F0.36371275331636704
sI3
F0.66439468858532025
sI4
F0.16255344519110865
ssS'zingt'
p446
(dp447
I0
F0.42829003318492914
sI1
F0.27453458297108707
sI2
F0.61592053122343504
sI3
F0.32616164322431035
sI4
F0.15653028099451943
ssS'verbaast'
p448
(dp449
I0
F0.97569921661273873
sI1
F0.1709065071427123
sI2
F0.31082439358319192
sI3
F0.11288973367737019
sI4
F0.72205361560451031
ssS'fantastisch'
p450
(dp451
I0
F0.8577460515804074
sI1
F0.28797608025037486
sI2
F0.26531571921679892
sI3
F0.092204358402154185
sI4
F0.058368753068858144
ssS'interview'
p452
(dp453
I0
F0.31911327514145915
sI1
F0.82850113216576415
sI2
F0.31307217788279718
sI3
F0.74508925955326755
sI4
F0.5439842429040419
ssS'indrukwekkend'
p454
(dp455
I0
F0.64675468081582455
sI1
F0.64879752974380878
sI2
F0.47520511188094744
sI3
F0.25661168779737686
sI4
F0.66489793130985408
ssS'vriendje'
p456
(dp457
I0
F0.40921576217337235
sI1
F0.77769210696668956
sI2
F0.90867323051897597
sI3
F-0.22700726558348178
sI4
F0.042801092925284667
ssS'anderen'
p458
(dp459
I0
F-0.14366367590694212
sI1
F0.67307562903126483
sI2
F0.92175973490436924
sI3
F1.186658259108194
sI4
F0.28705502227069762
ssS'heel'
p460
(dp461
I0
F0.6610844695331648
sI1
F0.665033561687152
sI2
F0.85541449729369734
sI3
F0.62896112112134439
sI4
F0.79387733284977957
ssS'educatief'
p462
(dp463
I0
F1.16452912633356
sI1
F0.35446751295125695
sI2
F0.6603514573054563
sI3
F-0.086450198756373359
sI4
F0.33506107249528416
ssS'complimenten'
p464
(dp465
I0
F0.21632643396648266
sI1
F0.46882548461506079
sI2
F0.88289734800596875
sI3
F0.45775453800355081
sI4
F0.8115430087120985
ssS'gezinsevent'
p466
(dp467
I0
F0.083894727040445108
sI1
F0.30142745935540249
sI2
F0.52311807520525733
sI3
F0.93546503804687653
sI4
F0.18718369770513557
ssS'ned2aan'
p468
(dp469
I0
F-0.038185833649669328
sI1
F0.44869369197394404
sI2
F0.092244931311602316
sI3
F0.78272475009095432
sI4
F0.86721747330314525
ssS'spelshow'
p470
(dp471
I0
F0.035229880728966129
sI1
F0.37754343408544022
sI2
F0.52047561651495433
sI3
F0.38250458501987294
sI4
F0.72868982478100297
ssS'max'
p472
(dp473
I0
F0.05831009123363283
sI1
F0.069822800632688309
sI2
F0.70734634041225275
sI3
F0.81733265985461379
sI4
F0.3092063355152519
ssS'pooierboys'
p474
(dp475
I0
F0.4463642693638718
sI1
F0.90424922563587817
sI2
F0.71114253312110076
sI3
F-0.11949728262481907
sI4
F0.17072220850713504
ssS'hiermee'
p476
(dp477
I0
F0.31760463055613164
sI1
F0.64496225826694153
sI2
F-0.033503921398295888
sI3
F-0.29869392028641661
sI4
F0.43425928789029294
ssS'mag'
p478
(dp479
I0
F0.36148054679277852
sI1
F0.61584273372999443
sI2
F0.39678118208714391
sI3
F1.4643566629152769
sI4
F-0.066539830778331352
ssS'hahahaha'
p480
(dp481
I0
F0.98220464785010597
sI1
F1.0176658600584274
sI2
F-0.1451204754426525
sI3
F0.18820681440990392
sI4
F0.44578228733269865
ssS'maar'
p482
(dp483
I0
F-0.12336965548447731
sI1
F0.91837086610687269
sI2
F0.9175620861507644
sI3
F-0.028638247625863488
sI4
F0.95850353039398095
ssS'hypocriet'
p484
(dp485
I0
F0.1180852809256351
sI1
F0.26050558816891695
sI2
F0.37033604159227534
sI3
F0.30043463674057919
sI4
F0.14018838682717458
ssS'dunnetjes'
p486
(dp487
I0
F0.55758318999487921
sI1
F0.27764506901057123
sI2
F0.94612044582150734
sI3
F0.90207141664796697
sI4
F0.019665170697569564
ssS'a'
(dp488
I0
F-0.0485260858588491
sI1
F-0.0014282892160775802
sI2
F0.9851382632612653
sI3
F0.72464030605213536
sI4
F0.6655114179529017
ssS'heftige'
p489
(dp490
I0
F0.85114652138376912
sI1
F0.86367983953234451
sI2
F0.42116873256327192
sI3
F0.16111052368231715
sI4
F0.5017067394405591
ssS'belerende'
p491
(dp492
I0
F0.40135381775458578
sI1
F0.66282261335351622
sI2
F0.70552465247116891
sI3
F-0.012567199752024886
sI4
F0.01045148848071982
ssS'teruggekomen'
p493
(dp494
I0
F-0.076007196117318113
sI1
F0.40931885571896209
sI2
F0.24464081599421977
sI3
F0.86903580264570923
sI4
F0.70720329985831676
ssS'enige'
p495
(dp496
I0
F0.43081628797465105
sI1
F0.1274342212972078
sI2
F0.12330319109635086
sI3
F0.30034758711540949
sI4
F0.76827228199861619
ssS'life'
p497
(dp498
I0
F1.8834794617134862
sI1
F1.1342053693047092
sI2
F0.38261072156656267
sI3
F-0.40927007878114186
sI4
F0.85571855429276367
ssS'bestaan'
p499
(dp500
I0
F0.61661940389260006
sI1
F0.53339872838867119
sI2
F0.95976559355456004
sI3
F0.9468574758171775
sI4
F0.69914774615751196
ssS'wint'
p501
(dp502
I0
F0.48612531824057159
sI1
F0.38461233651280363
sI2
F0.96952444539726257
sI3
F0.95588026189659336
sI4
F0.99716004780761103
ssS'gehalte'
p503
(dp504
I0
F0.64330093070188854
sI1
F0.42674643507797405
sI2
F0.35931976948302019
sI3
F0.98837160819311465
sI4
F0.82374266592453882
ssS'liggen'
p505
(dp506
I0
F-0.095468927663485581
sI1
F0.8057663924899009
sI2
F0.17472475247123573
sI3
F0.44773576185406783
sI4
F0.16130006848642564
ssS'documentaire'
p507
(dp508
I0
F0.83017811053376245
sI1
F0.23329305305705558
sI2
F0.37134343258556407
sI3
F0.39242072060835964
sI4
F0.50435007908094831
ssS'waarom'
p509
(dp510
I0
F0.73726634359336374
sI1
F0.093806648239665044
sI2
F0.72727028450755071
sI3
F0.32780257037454269
sI4
F0.60180966661538748
ssS'pr8ig'
p511
(dp512
I0
F0.46917115535242304
sI1
F0.39069081345272438
sI2
F0.77538686357611053
sI3
F0.11125585398175623
sI4
F0.9763033683862099
ssS'collegas'
p513
(dp514
I0
F-0.13656059075924129
sI1
F0.72382405338096867
sI2
F0.55019230209429049
sI3
F0.77337781208499412
sI4
F0.26734676654517758
ssS'lizelotte'
p515
(dp516
I0
F0.44704346437490688
sI1
F0.06791517472441265
sI2
F0.86565467299247867
sI3
F0.51071383048863628
sI4
F0.19886467221776316
ssS'copts'
p517
(dp518
I0
F0.42221358003355924
sI1
F0.23321174466496425
sI2
F0.90773678383858836
sI3
F0.46168127479141852
sI4
F0.15404264348809615
ssS'nieuw'
p519
(dp520
I0
F0.93901591826941522
sI1
F0.75675086243486456
sI2
F0.27045792067499663
sI3
F0.015518118335106953
sI4
F0.57000506560701603
ssS'eigen'
p521
(dp522
I0
F0.39882142728073944
sI1
F0.89705247254377518
sI2
F0.15394094662905283
sI3
F0.95375868907861194
sI4
F0.60179540051288571
ssS'over'
p523
(dp524
I0
F-0.023126673177411995
sI1
F0.69378807665975262
sI2
F0.42913565245579027
sI3
F-0.20197560356704228
sI4
F0.82195288751709727
ssS'response6960'
p525
(dp526
I0
F0.58297761380150204
sI1
F0.54762639476750574
sI2
F0.28149264673587165
sI3
F0.72753675173597643
sI4
F0.86538793559705085
ssS'response6963'
p527
(dp528
I0
F0.33616288286804225
sI1
F0.55362304015080888
sI2
F0.043099120517497438
sI3
F0.44028051450528299
sI4
F0.31788657535822634
ssS'hele'
p529
(dp530
I0
F0.14866698925468164
sI1
F0.037579163973744972
sI2
F0.45767638479730832
sI3
F0.42972211028421137
sI4
F0.27706897395334062
ssS'zappen'
p531
(dp532
I0
F0.70890513956517676
sI1
F0.86377581297974326
sI2
F-0.0097900895925899824
sI3
F0.21847014137070531
sI4
F0.040700391584796575
ssS'natuur'
p533
(dp534
I0
F0.54954721348383628
sI1
F0.14040365101551291
sI2
F0.42765293296397999
sI3
F0.41220406827032202
sI4
F0.63694074839071224
ssS'onepotv'
p535
(dp536
I0
F0.097974952218558176
sI1
F0.93099480851568495
sI2
F0.99302053294904669
sI3
F0.73299833064523967
sI4
F0.10448136306737012
ssS'samenleving'
p537
(dp538
I0
F0.6625283293988401
sI1
F0.16050289635121934
sI2
F0.16537356608872977
sI3
F-0.20197879332815238
sI4
F0.42060995352322955
ssS'hell'
p539
(dp540
I0
F-0.006523802151754258
sI1
F0.36957505241145389
sI2
F0.50391082567620982
sI3
F0.47185523355985831
sI4
F0.2086707157560308
ssS'hoi'
p541
(dp542
I0
F-0.013299212909607205
sI1
F0.54437394874801748
sI2
F0.56396887622050451
sI3
F0.21550569753124688
sI4
F0.96003383910600404
ssS'reeel'
p543
(dp544
I0
F-0.078444740792508502
sI1
F0.1680293522216362
sI2
F0.61671889209058517
sI3
F0.45495080806586136
sI4
F0.82174717586940593
ssS'dagje'
p545
(dp546
I0
F0.3908206674816988
sI1
F0.89225367566719294
sI2
F0.14313848681630151
sI3
F0.21346970758158992
sI4
F0.84452592713217278
ssS'wilt'
p547
(dp548
I0
F0.31578156830999599
sI1
F0.5835049847573256
sI2
F0.099373828490385702
sI3
F0.7789731352085244
sI4
F0.31454186779512328
ssS'alle'
p549
(dp550
I0
F0.40970309138692984
sI1
F0.4395678975457028
sI2
F0.80045118269554416
sI3
F0.70561566166600376
sI4
F0.58262693389604681
ssS'verbazing'
p551
(dp552
I0
F0.38379397649662306
sI1
F0.95722985280413553
sI2
F0.18048904659670059
sI3
F0.20775565006031574
sI4
F0.16292995422006123
ssS'midden'
p553
(dp554
I0
F0.13900135845114839
sI1
F0.90211164610270644
sI2
F0.10648199394315754
sI3
F0.54700030021169987
sI4
F0.78004557910045547
ssS'la'
p555
(dp556
I0
F0.54038507094145061
sI1
F0.80691452168172584
sI2
F0.45117090903686236
sI3
F0.39232130697656148
sI4
F0.80537871270039385
ssS'verzet'
p557
(dp558
I0
F0.033475402994637679
sI1
F0.15779182727657298
sI2
F0.42222700917610612
sI3
F0.71979700464223717
sI4
F0.75560256614689514
ssS'dreigementen'
p559
(dp560
I0
F0.57735622295450173
sI1
F0.61394027942995322
sI2
F0.033215550616567717
sI3
F0.48685979814090696
sI4
F0.9409653911749053
ssS'vertellen'
p561
(dp562
I0
F-0.19660319442967022
sI1
F0.036312545798829039
sI2
F0.77901674970765222
sI3
F0.38543360988499009
sI4
F0.88004364814572489
ssS'neerlands'
p563
(dp564
I0
F0.06879191380237791
sI1
F0.81452760090756637
sI2
F0.93235394210692069
sI3
F0.97909232001644209
sI4
F0.4931271972367825
ssS'x2018nederland'
p565
(dp566
I0
F1.0902156330178676
sI1
F0.07744444512851098
sI2
F0.24447000846301703
sI3
F0.48996509102103925
sI4
F0.31301764662072706
ssS'alsof'
p567
(dp568
I0
F0.25551820949060505
sI1
F0.86984376961765053
sI2
F0.26673670373014929
sI3
F0.33353795775492073
sI4
F0.41625257711254365
ssS'mariskadehaas'
p569
(dp570
I0
F0.1540640336325392
sI1
F0.0066974345058217
sI2
F0.88932750906140445
sI3
F0.010121337022702381
sI4
F0.89200895619741694
ssS'2012'
p571
(dp572
I0
F-0.61761631395684469
sI1
F-0.011080811945534244
sI2
F0.75022951875522359
sI3
F1.2136587102484395
sI4
F0.76109601330824972
ssS'morgen'
p573
(dp574
I0
F-0.61528804766853618
sI1
F0.01018172214504069
sI2
F0.40308310717652257
sI3
F0.67342289141157019
sI4
F0.3544824081216098
ssS'dag'
p575
(dp576
I0
F0.54620634439920945
sI1
F0.24623392628777088
sI2
F0.3641595467268337
sI3
F0.30688039635351005
sI4
F0.61883649546353969
ssS'radio1'
p577
(dp578
I0
F0.4416033376418948
sI1
F0.97506093166930963
sI2
F0.51564152543871256
sI3
F0.19968968073926249
sI4
F0.1150847946162972
ssS'dan'
p579
(dp580
I0
F0.21457450780510562
sI1
F0.19387835940220988
sI2
F0.76873731077665619
sI3
F0.16049387348844993
sI4
F0.29631035926344795
ssS'nog'
p581
(dp582
I0
F-0.039092313687484864
sI1
F0.13997518656905619
sI2
F0.97074864443264142
sI3
F-0.11816483115133156
sI4
F0.75976348976152164
ssS'docu'
p583
(dp584
I0
F0.71931532026148726
sI1
F0.31122687265757476
sI2
F0.9587568904553565
sI3
F0.64457710828127535
sI4
F0.57387008294230835
ssS'kist'
p585
(dp586
I0
F0.24750630257160589
sI1
F0.30931858018770986
sI2
F0.37869741264447299
sI3
F0.16961655590728208
sI4
F0.44873015182098824
ssS'staan'
p587
(dp588
I0
F0.301067189642166
sI1
F0.98630598838630934
sI2
F0.92821633243523738
sI3
F0.33799760406733548
sI4
F0.91979440522560174
ssS'das'
p589
(dp590
I0
F0.142903516579658
sI1
F0.35255750264888619
sI2
F0.12195061404710553
sI3
F0.13184432102463461
sI4
F0.64338336446260525
ssS'komende'
p591
(dp592
I0
F0.33775627479819448
sI1
F0.56492754753628283
sI2
F0.11312825660241116
sI3
F1.0275027219248325
sI4
F0.91101697937578907
ssS'gerschtanowitz'
p593
(dp594
I0
F-0.097042341649335631
sI1
F0.83018415088225284
sI2
F0.018579015561008511
sI3
F0.91115833069527563
sI4
F0.87140779164143933
ssS'hippies'
p595
(dp596
I0
F0.6109530876758521
sI1
F0.61804201330209818
sI2
F0.12331576108580226
sI3
F-0.05781880239874343
sI4
F0.36839823261228755
ssS'wereldvreemde'
p597
(dp598
I0
F0.24897241699674832
sI1
F0.96879404749807474
sI2
F0.15211587659564638
sI3
F0.74554829916828547
sI4
F0.41270892513837615
ssS'reactie'
p599
(dp600
I0
F0.27837211469907946
sI1
F-0.016539194591465071
sI2
F0.39439510621521218
sI3
F0.78306190739469272
sI4
F-0.0011905814333347652
ssS'winnaar'
p601
(dp602
I0
F-0.23554937193103653
sI1
F0.83562858839742704
sI2
F0.036260653922372259
sI3
F0.7671290781537814
sI4
F0.041616540594565966
ssS'beperking'
p603
(dp604
I0
F0.48542169396361345
sI1
F0.057198753241623775
sI2
F0.57489247858240722
sI3
F0.8032779835375865
sI4
F0.79079386252436734
ssS'edit'
p605
(dp606
I0
F0.94890631086119115
sI1
F0.387292984257746
sI2
F0.85544503195596444
sI3
F0.21821220329897534
sI4
F0.50460155372850379
ssS'geblokte'
p607
(dp608
I0
F0.41561093347068662
sI1
F0.52490459671350176
sI2
F1.0050942704317229
sI3
F1.1303881401513416
sI4
F0.52577838262670773
ssS'liefdesdans'
p609
(dp610
I0
F0.70198542865087121
sI1
F0.52061621027102056
sI2
F0.29880583000467703
sI3
F0.071253198251153255
sI4
F0.94724278486398394
ssS'rocks'
p611
(dp612
I0
F1.0770400293085785
sI1
F0.95082842145296387
sI2
F0.56308808241827391
sI3
F0.23082927152195018
sI4
F0.86310202122226343
ssS'buurvrouw'
p613
(dp614
I0
F0.072528859011899011
sI1
F0.12725506077884846
sI2
F0.40086125530550765
sI3
F-0.15214843681542525
sI4
F0.18617697976245082
ssS'februari'
p615
(dp616
I0
F0.0585699499298818
sI1
F0.35270786569489176
sI2
F0.70023707987148054
sI3
F0.28822767851690956
sI4
F0.19731667409911297
ssS'kipje'
p617
(dp618
I0
F1.2092632391400207
sI1
F0.79989839257673345
sI2
F-0.14187701046745932
sI3
F0.03907028753654946
sI4
F0.45392796229887111
ssS'h'
(dp619
I0
F0.045966800783977531
sI1
F0.10079992310774129
sI2
F0.68930019794906094
sI3
F0.53181680447666413
sI4
F0.17372311819598321
ssS'januari'
p620
(dp621
I0
F-0.15245803645742809
sI1
F0.19325246365169774
sI2
F0.20644630132364467
sI3
F0.94701123066969939
sI4
F0.55195545767768217
ssS'ongelijk'
p622
(dp623
I0
F0.33854439338193354
sI1
F0.68152187566298061
sI2
F0.12015533988549235
sI3
F0.79234829908042714
sI4
F0.78857068569422073
ssS'eo'
p624
(dp625
I0
F0.48566361775620914
sI1
F-0.020358724389553579
sI2
F-0.5386244264054818
sI3
F-0.55660925943577388
sI4
F0.55067707010267664
ssS'publiekeomroep'
p626
(dp627
I0
F0.26895182312822591
sI1
F0.83051073407133069
sI2
F0.85369103610850583
sI3
F0.79340301418121861
sI4
F0.42282260322819271
ssS'ee'
p628
(dp629
I0
F0.87437218031612174
sI1
F0.65364380851395187
sI2
F0.80764090240361408
sI3
F0.93646502587666647
sI4
F0.31849171293115874
ssS'idee'
p630
(dp631
I0
F1.1783897551686822
sI1
F0.34310117490194936
sI2
F0.5739480522879834
sI3
F0.22551438507610996
sI4
F0.11400656891553296
ssS'mijn'
p632
(dp633
I0
F-0.04150271625274736
sI1
F0.84395052195270148
sI2
F0.5016624500634228
sI3
F0.24299184259810255
sI4
F-0.0020126701659179467
ssS'bedoornbos'
p634
(dp635
I0
F0.74594485503646113
sI1
F0.22733516904792192
sI2
F0.29902840637884759
sI3
F0.83841982842138918
sI4
F0.52083325866843333
ssS'kijkenahzielighooriksteeds'
p636
(dp637
I0
F-0.13271368763686753
sI1
F0.27206892529130455
sI2
F0.94765046371855066
sI3
F0.92065592752888969
sI4
F0.54756268066159608
ssS'oud'
p638
(dp639
I0
F-0.36667730240823815
sI1
F0.38881349955007005
sI2
F0.38021714049111149
sI3
F0.72185851715277594
sI4
F0.7971711102017226
ssS'bende'
p640
(dp641
I0
F0.14523039879555547
sI1
F0.62942705428699808
sI2
F0.64954175925868762
sI3
F0.89491005021856429
sI4
F0.54112252172652375
ssS'ex'
p642
(dp643
I0
F0.53985970847265563
sI1
F0.55281074523828577
sI2
F0.20567014532096456
sI3
F0.16012058807644536
sI4
F0.95062571797102691
ssS'natuurlijk'
p644
(dp645
I0
F0.70040480284033502
sI1
F0.55408819539123644
sI2
F0.45855872120576774
sI3
F1.168936627716904
sI4
F0.76678816871372624
ssS'alweer'
p646
(dp647
I0
F-0.031671513101899099
sI1
F0.12282313318398651
sI2
F0.9182019326330364
sI3
F0.12061864267220784
sI4
F0.44049877735519227
ssS'logo'
p648
(dp649
I0
F0.95450740007704027
sI1
F0.042146907457787153
sI2
F0.52062985137623863
sI3
F-0.17805918880735919
sI4
F0.32565839847465122
ssS'kant'
p650
(dp651
I0
F0.7192436113047691
sI1
F0.41715237963784946
sI2
F0.73217675911499425
sI3
F0.3747882776824269
sI4
F0.49493802408228327
ssS'waardevolle'
p652
(dp653
I0
F0.39141390972816992
sI1
F0.73446853378178523
sI2
F0.16462242240722361
sI3
F0.77625841873317747
sI4
F0.70618407499387847
ssS'special'
p654
(dp655
I0
F-0.064975132236007038
sI1
F0.91409838320664472
sI2
F0.77046561515199941
sI3
F0.15219253515018513
sI4
F0.86490129600234567
ssS'er'
p656
(dp657
I0
F-0.55350147813327621
sI1
F0.3277320552488876
sI2
F1.1654393591528982
sI3
F1.4010847923666583
sI4
F-0.014287487832670231
ssS'brandt'
p658
(dp659
I0
F0.70285423606354791
sI1
F0.52005272412491177
sI2
F0.75059959409268351
sI3
F0.46532098680625428
sI4
F0.68510328668877485
ssS'god'
p660
(dp661
I0
F0.88042699568169436
sI1
F0.59925927133969681
sI2
F-0.088878561540539761
sI3
F0.19414823088554828
sI4
F0.54955066616049508
ssS'zendt'
p662
(dp663
I0
F0.24157449203039477
sI1
F0.80224913351129612
sI2
F0.21907056529258279
sI3
F0.81198146244531233
sI4
F0.9766758574935509
ssS'freakshow'
p664
(dp665
I0
F0.3418023979320452
sI1
F0.89573499781121824
sI2
F0.18100393591508182
sI3
F0.4284020902568495
sI4
F0.7736909978222114
ssS'ontspanning'
p666
(dp667
I0
F0.65957874588237952
sI1
F0.23457380945228601
sI2
F0.47811601469935411
sI3
F0.16056762299033184
sI4
F0.17498769005809278
ssS'waar'
p668
(dp669
I0
F0.5066277957246631
sI1
F0.21813621761479113
sI2
F0.36260442984877128
sI3
F0.25344676035018399
sI4
F0.50190198624700544
ssS'evangelische'
p670
(dp671
I0
F0.66072455939793295
sI1
F0.74624891253942771
sI2
F0.37694919332369869
sI3
F0.66651724074686181
sI4
F0.71273469434921777
ssS'wakker'
p672
(dp673
I0
F0.39371104683200303
sI1
F0.39887722918356783
sI2
F-0.0073922018543302343
sI3
F0.06561170647293145
sI4
F0.85170684829158738
ssS'stuk'
p674
(dp675
I0
F0.24375337960765869
sI1
F0.25375988598074767
sI2
F0.81269139770752641
sI3
F1.0807130362549862
sI4
F0.73828272332787392
ssS'brabantia'
p676
(dp677
I0
F0.31480633392437812
sI1
F0.97572727349280419
sI2
F0.56587507480048327
sI3
F0.28063938978555081
sI4
F0.3690066695042199
ssS'highway'
p678
(dp679
I0
F0.16179855961500128
sI1
F0.17468829598472757
sI2
F0.02509149583844391
sI3
F0.92531657661509337
sI4
F0.41260085178688749
ssS'ze'
p680
(dp681
I0
F-0.36335232875012685
sI1
F-0.1271593325171779
sI2
F0.1708336817872477
sI3
F0.57789081642365447
sI4
F-0.0289543843018116
ssS'oude'
p682
(dp683
I0
F0.38145528933533157
sI1
F0.7169635361841673
sI2
F0.12295140846679517
sI3
F0.2396953877720098
sI4
F0.29931985711813558
ssS'heeft'
p684
(dp685
I0
F-0.20828085329544346
sI1
F0.47289933245026422
sI2
F0.63198898085128963
sI3
F0.56075526397514153
sI4
F0.96105313141296789
ssS'vakantiebeurs'
p686
(dp687
I0
F0.76164559084993877
sI1
F0.49190155549980036
sI2
F0.74368983443296122
sI3
F0.42662108034114693
sI4
F0.75784863742558095
ssS'vroeg'
p688
(dp689
I0
F0.10734831990175335
sI1
F0.37596341115411708
sI2
F0.89088159601655725
sI3
F0.58696375271046841
sI4
F0.11819426651126895
ssS'gericht'
p690
(dp691
I0
F0.20578422020578493
sI1
F0.78060062064260405
sI2
F0.25628100491200945
sI3
F0.35237993106743593
sI4
F0.033461606795744732
ssS'dirk'
p692
(dp693
I0
F0.72099731638996212
sI1
F0.61610574198308121
sI2
F0.76646425254249861
sI3
F0.74574330526259225
sI4
F0.46835802232613527
ssS'psychische'
p694
(dp695
I0
F0.68522346444332038
sI1
F0.87251168620914787
sI2
F0.33691587183855043
sI3
F0.59880108099594753
sI4
F0.88326610990048748
ssS'gospel'
p696
(dp697
I0
F-0.0030781325767312222
sI1
F0.074371655856199426
sI2
F0.81584935644197598
sI3
F0.76159372266356817
sI4
F0.37407932255503756
ssS'ok'
p698
(dp699
I0
F0.31839873555144177
sI1
F0.93634062553194808
sI2
F0.19294007512344705
sI3
F0.57614529706738027
sI4
F0.54789791490498385
ssS'privacy'
p700
(dp701
I0
F0.30706989294021486
sI1
F0.086605309326984001
sI2
F0.67152738571664783
sI3
F1.1846157653607914
sI4
F0.47389440293066604
ssS'keer'
p702
(dp703
I0
F0.7280108030362229
sI1
F0.38079719650872795
sI2
F0.92475290435285873
sI3
F-0.18736673776721369
sI4
F0.2358799516746562
ssS'bewonderenswaardige'
p704
(dp705
I0
F0.6928154041104525
sI1
F0.0013313401459042796
sI2
F0.86407388620179493
sI3
F0.37932654736970434
sI4
F0.047851177870609621
ssS'keek'
p706
(dp707
I0
F0.18480926463479774
sI1
F0.17215773044014665
sI2
F-0.0034230300326235055
sI3
F0.013059236806435255
sI4
F0.91296950987032366
ssS'morgenochtend'
p708
(dp709
I0
F0.33292655249000513
sI1
F0.15139182326368378
sI2
F0.20419059615605401
sI3
F-0.29652185189742841
sI4
F0.053078154782689811
ssS'geloof'
p710
(dp711
I0
F-0.079414450364793901
sI1
F0.10006598286334058
sI2
F0.38714692038097487
sI3
F0.47083942988838973
sI4
F0.72751270299824877
ssS'uitbetrouwbarebron'
p712
(dp713
I0
F0.23776927781866025
sI1
F0.79715991236132522
sI2
F0.24650584457892832
sI3
F-0.43254064499991018
sI4
F1.0021583342789211
ssS'ding'
p714
(dp715
I0
F0.6579718484267989
sI1
F0.39427668866469656
sI2
F0.58995890931923223
sI3
F0.5215196757172067
sI4
F0.39266547962218584
ssS'zal'
p716
(dp717
I0
F0.098671529577686115
sI1
F0.74511483775995213
sI2
F0.80974162288539719
sI3
F0.76306734035020241
sI4
F0.59919427555799687
ssS'drinken'
p718
(dp719
I0
F0.29619445023944357
sI1
F0.023826383927977628
sI2
F0.67544624798686592
sI3
F0.77663544768408821
sI4
F0.4804985351012192
ssS'ff'
p720
(dp721
I0
F0.1031162937555371
sI1
F0.51490668475915535
sI2
F0.32716952128963134
sI3
F0.073558327013650907
sI4
F0.157728701856162
ssS'hoor'
p722
(dp723
I0
F1.0028635437689601
sI1
F0.17476362172381632
sI2
F0.15752168084927409
sI3
F-0.22614613662294381
sI4
F0.59964649828064476
ssS'zag'
p724
(dp725
I0
F-0.23614489231284189
sI1
F0.72847505337829599
sI2
F0.69003141804227319
sI3
F0.66674671701774157
sI4
F0.82496459970907066
ssS'gebouw'
p726
(dp727
I0
F0.098059396350495043
sI1
F0.82392873718202109
sI2
F0.98323448010604031
sI3
F0.59850092155944801
sI4
F0.74736723926280746
ssS'xd'
p728
(dp729
I0
F0.36419690903631768
sI1
F0.54669031053872286
sI2
F0.7377430143369974
sI3
F0.6316328686846796
sI4
F0.55248248996982463
ssS'geschapen'
p730
(dp731
I0
F0.67554850075841633
sI1
F0.60850803147836274
sI2
F0.69268277432343572
sI3
F-0.07459721635847065
sI4
F0.059982138802117314
ssS'whauh'
p732
(dp733
I0
F0.38585067391257866
sI1
F0.83560427558043493
sI2
F0.18322180006220709
sI3
F0.7692701254936386
sI4
F0.76211027574079437
ssS'echt'
p734
(dp735
I0
F0.51922784605798322
sI1
F0.63706452174327977
sI2
F-0.026880653306869094
sI3
F0.0073117440167981065
sI4
F0.98168813735350802
ssS'mirjamspeeltvals'
p736
(dp737
I0
F1.0374510999056468
sI1
F0.32130539896627841
sI2
F0.84288330530945021
sI3
F-0.46771172884486811
sI4
F0.4302066820294046
ssS'opbellen'
p738
(dp739
I0
F0.44914933324371953
sI1
F0.67129404259161662
sI2
F0.5673212708476435
sI3
F0.6416738500074628
sI4
F0.44976125030127989
ssS'ons'
p740
(dp741
I0
F-0.06902375790130888
sI1
F0.54975943403204253
sI2
F0.74325387903551576
sI3
F0.62906291563215799
sI4
F0.71934797657387528
ssS'pelikanen'
p742
(dp743
I0
F1.0443960573476989
sI1
F1.0283055917442223
sI2
F0.80641029616321425
sI3
F0.37220773840563598
sI4
F0.279744979464772
ssS'hoog'
p744
(dp745
I0
F0.62995854134425422
sI1
F0.60381325668479802
sI2
F0.099160246483532208
sI3
F0.95175480032324966
sI4
F0.52514608033096966
ssS'pedofielen'
p746
(dp747
I0
F0.36563063572301219
sI1
F0.58822333727613485
sI2
F0.03752695618217651
sI3
F0.54172975332638118
sI4
F0.35846073848511378
ssS'weke'
p748
(dp749
I0
F0.88272088139240712
sI1
F0.15312079158889649
sI2
F0.46035174675397811
sI3
F0.25206969594660394
sI4
F0.82585184004982082
ssS'veer'
p750
(dp751
I0
F0.89971692906578127
sI1
F0.63638098627386841
sI2
F0.35808929215818047
sI3
F0.9313935747885258
sI4
F0.95235554690397273
ssS'voorzichtig'
p752
(dp753
I0
F0.80579142148851868
sI1
F0.55542784472880635
sI2
F0.92836843703314331
sI3
F0.60033001129340469
sI4
F0.46970614414904382
ssS'radioprogramma'
p754
(dp755
I0
F0.10460621543529827
sI1
F0.49253156272417209
sI2
F0.34007038305397136
sI3
F0.67765300250712812
sI4
F0.94256339089104468
ssS'boekenvak'
p756
(dp757
I0
F0.27159789974774845
sI1
F0.89150875353821102
sI2
F0.038598856454400893
sI3
F0.28764414527051224
sI4
F0.046739207830431583
ssS'twaalf'
p758
(dp759
I0
F0.2644770181775849
sI1
F0.21023977271592592
sI2
F-0.031180379393521172
sI3
F-0.23987684887433541
sI4
F0.75517159577564219
ssS'leekennen'
p760
(dp761
I0
F0.17270332141542885
sI1
F0.36483514195301625
sI2
F0.39238512586221486
sI3
F0.078730479712752544
sI4
F0.00046542937459310171
ssS'ooit'
p762
(dp763
I0
F-0.075527691599440144
sI1
F0.86792782303690208
sI2
F0.85732297430084414
sI3
F0.45031816897554217
sI4
F0.81072702257721552
ssS'eensch'
p764
(dp765
I0
F0.86674531103249119
sI1
F0.62211949048002735
sI2
F0.12938263669269817
sI3
F0.061912836656591953
sI4
F0.59731605228505924
ssS'2'
(dp766
I0
F1.3393737108855488
sI1
F1.0117014709758043
sI2
F0.13089017072028103
sI3
F-0.12505283822461927
sI4
F-0.37985708880303154
ssS'ton'
p767
(dp768
I0
F0.52382394254843556
sI1
F0.46052569046733027
sI2
F0.89650442984317291
sI3
F0.95834907052327856
sI4
F0.75071465288205708
ssS'zelfs'
p769
(dp770
I0
F0.57760187496386928
sI1
F0.15707464296919191
sI2
F0.083411264732161206
sI3
F0.55229771397958272
sI4
F0.48015442800240155
ssS'honden'
p771
(dp772
I0
F0.63362876039086813
sI1
F0.16307349067813282
sI2
F0.1388557901530883
sI3
F1.1515679708962514
sI4
F0.96263784815266473
ssS'genieten'
p773
(dp774
I0
F0.25257265345785151
sI1
F0.78324956868982998
sI2
F0.45007060693413492
sI3
F0.74735091578647761
sI4
F0.85552413040419362
ssS'kop'
p775
(dp776
I0
F-0.033444505110572773
sI1
F0.40223258480916002
sI2
F0.093348906614825394
sI3
F0.75748238198510753
sI4
F0.36368524594794482
ssS'nigeria'
p777
(dp778
I0
F0.10190503568367752
sI1
F0.65112957998449361
sI2
F0.65754775935271481
sI3
F0.28496043913429492
sI4
F0.51091807649221599
ssS'leden'
p779
(dp780
I0
F-0.017353101151694451
sI1
F0.9185260628660028
sI2
F0.14511850437353246
sI3
F0.74823490163450346
sI4
F0.24236423662500148
ssS'toe'
p781
(dp782
I0
F0.62394843374515541
sI1
F0.91103318735783467
sI2
F0.7188160987126615
sI3
F0.58848717314643972
sI4
F0.93909433359840455
ssS'paar'
p783
(dp784
I0
F0.69855513367708844
sI1
F0.37434880646601409
sI2
F0.43669114389592922
sI3
F0.34349678229853758
sI4
F0.19239712803495426
ssS'paaps'
p785
(dp786
I0
F0.58009413375229113
sI1
F0.4790837256743915
sI2
F0.69408035546432723
sI3
F0.53958010768941234
sI4
F0.2410821851587493
ssS'heb'
p787
(dp788
I0
F0.054164524755702353
sI1
F0.10670851765049208
sI2
F0.068809018004184749
sI3
F0.8419490533868611
sI4
F0.5299152767665477
ssS'bijzonder'
p789
(dp790
I0
F0.066844995332620283
sI1
F0.49091492131274544
sI2
F0.79454209855904656
sI3
F0.83254712480395354
sI4
F0.059185104783799805
ssS'hun'
p791
(dp792
I0
F-0.058437787931941529
sI1
F0.69607540409667268
sI2
F0.34986476435647779
sI3
F0.58063569993954733
sI4
F0.58344532099383173
ssS'xebnwaerdt'
p793
(dp794
I0
F0.30829377457388796
sI1
F0.83462408773015917
sI2
F0.022910329313187591
sI3
F0.11938529266911993
sI4
F0.57367513046649299
ssS'netwerk'
p795
(dp796
I0
F1.1214131012917172
sI1
F0.39974042620822903
sI2
F0.821473456212655
sI3
F0.58726302004828712
sI4
F0.12790142347338029
ssS'levensbeschouwingslessen'
p797
(dp798
I0
F0.95489609015679455
sI1
F0.18851720016266366
sI2
F0.82709714895474618
sI3
F0.4127496929807824
sI4
F0.9620444262097243
ssS'pars'
p799
(dp800
I0
F0.44258386355057405
sI1
F0.6253191022687653
sI2
F0.74517976680508646
sI3
F1.002342150745932
sI4
F0.90458270433703947
ssS'waarden'
p801
(dp802
I0
F0.84157003459547219
sI1
F0.23907167164108575
sI2
F0.55916522795937318
sI3
F-0.11157328469098045
sI4
F0.31901535531921904
ssS'vissen'
p803
(dp804
I0
F0.73084496557889511
sI1
F0.16262276466136133
sI2
F0.29797534372410156
sI3
F0.10031447994185003
sI4
F0.67579780130102074
ssS'binnen'
p805
(dp806
I0
F0.26133875412337326
sI1
F0.53451870476935381
sI2
F0.68287888166246447
sI3
F0.66893925762228079
sI4
F0.019053559354318461
ssS'feestgangersz'
p807
(dp808
I0
F-0.014443951412542502
sI1
F0.6681842864729759
sI2
F0.90847189698649067
sI3
F1.1288573314105552
sI4
F0.63561519848279002
ssS'brengen'
p809
(dp810
I0
F0.65059735735181157
sI1
F0.61840132346416765
sI2
F0.57126333525500483
sI3
F0.93665280423432939
sI4
F0.86145971810292954
ssS'spannend'
p811
(dp812
I0
F0.8175040762282878
sI1
F0.64906259765732599
sI2
F0.64635214108398542
sI3
F0.46007899675882225
sI4
F0.36829009911509342
ssS'bekeken'
p813
(dp814
I0
F0.5107271442670086
sI1
F0.89131256444658369
sI2
F0.50900242638605331
sI3
F0.47499934771703994
sI4
F0.36944315634600172
ssS'zonder'
p815
(dp816
I0
F0.64033317392613631
sI1
F0.34944672546155692
sI2
F0.80246596769460243
sI3
F0.98316864080581956
sI4
F0.3713387896338125
ssS'proefabonnement'
p817
(dp818
I0
F0.85256341603086527
sI1
F0.11218959017897583
sI2
F0.23119961633038164
sI3
F-0.30388630823493545
sI4
F0.87205475044740011
ssS'hoeft'
p819
(dp820
I0
F0.099368938260685144
sI1
F0.2522541512444057
sI2
F0.98073358400637844
sI3
F0.92868352799705867
sI4
F0.66170071149388654
ssS'ben'
p821
(dp822
I0
F-0.39052712357937852
sI1
F0.40898566555304744
sI2
F0.40179875762631062
sI3
F0.50801665165855536
sI4
F0.62851168200682628
ssS'jongere'
p823
(dp824
I0
F0.60170895849252903
sI1
F0.94725423283346122
sI2
F0.12610271648006161
sI3
F0.12259214746977838
sI4
F0.85090277328772557
ssS'ew'
p825
(dp826
I0
F-0.17480567044630152
sI1
F0.77940299503912047
sI2
F0.70293454383860698
sI3
F0.88472222403166445
sI4
F0.90010932630929907
ssS'eodatdanweerwel'
p827
(dp828
I0
F0.64858504245884363
sI1
F0.24171193365379678
sI2
F0.58544667410132267
sI3
F0.2398433974045569
sI4
F0.19605452090389858
ssS'vogels'
p829
(dp830
I0
F0.35730788740844144
sI1
F0.23247095947223501
sI2
F0.81180806681330309
sI3
F0.0016596469070886215
sI4
F0.42969866955293123
ssS'aan'
p831
(dp832
I0
F1.4395561827156527
sI1
F0.53670276741604006
sI2
F0.8290779267457371
sI3
F-0.26526388053766287
sI4
F0.41008564821845617
ssS'sterven'
p833
(dp834
I0
F0.79338797056942711
sI1
F0.13299951642041799
sI2
F0.92174992859558136
sI3
F0.99829300396336162
sI4
F0.2989307362630414
ssS'bedoelde'
p835
(dp836
I0
F0.97335751369002954
sI1
F0.039833248982713163
sI2
F0.6121550127860208
sI3
F0.91251062387566062
sI4
F0.28922560520077389
ssS'feyne'
p837
(dp838
I0
F0.55799996496991988
sI1
F0.56798530179138207
sI2
F0.22882071305892673
sI3
F0.87782598991796246
sI4
F0.96653357597338696
ssS'hebbe'
p839
(dp840
I0
F0.33965134947681758
sI1
F0.7237365497995899
sI2
F0.11181632291486472
sI3
F0.40260586075000443
sI4
F0.25352404124550587
ssS'telefoonterreur'
p841
(dp842
I0
F0.25533956806654146
sI1
F0.66971389297902328
sI2
F0.15412086389648813
sI3
F-0.17688869389366912
sI4
F0.48256221767252566
ssS'blijft'
p843
(dp844
I0
F-0.045300852861362748
sI1
F0.58313950776964296
sI2
F0.70369890471086727
sI3
F0.47989616258376755
sI4
F0.85886397312924578
ssS'dank'
p845
(dp846
I0
F0.45168706285184812
sI1
F0.84558067417293203
sI2
F0.73952896297242854
sI3
F0.23211685322448522
sI4
F0.79010935819245109
ssS'juicht'
p847
(dp848
I0
F-0.0099720603018221762
sI1
F0.33814161176813901
sI2
F0.27608541305013018
sI3
F0.4116073823501511
sI4
F0.74513441237425893
ssS'dtv'
p849
(dp850
I0
F-0.050557481878547229
sI1
F0.38561881563089712
sI2
F0.558063691113031
sI3
F0.19485700622808722
sI4
F0.22005909112446753
ssS'beter'
p851
(dp852
I0
F0.54234865494233941
sI1
F0.19144520085527933
sI2
F0.66623378133639044
sI3
F0.89417062561426308
sI4
F0.042620492090402098
ssS'vijf'
p853
(dp854
I0
F0.14775062553246571
sI1
F0.85377095847789097
sI2
F0.3129402593790816
sI3
F0.1875174767449877
sI4
F0.93899169078756783
ssS'alles'
p855
(dp856
I0
F0.50106954997520603
sI1
F0.91478206919468663
sI2
F0.070058112325808608
sI3
F-0.27746431712827252
sI4
F0.061462606367807156
ssS'feest'
p857
(dp858
I0
F-0.052899391245371935
sI1
F0.14199264238320508
sI2
F0.3744071858351008
sI3
F0.8999785209039417
sI4
F0.60905914856933585
ssS'donker'
p859
(dp860
I0
F0.19926280428015325
sI1
F0.46949452777379586
sI2
F0.99085076480472933
sI3
F0.90473005976249765
sI4
F0.77116763207066497
ssS'reportages'
p861
(dp862
I0
F0.6172059891607572
sI1
F0.53814303819281328
sI2
F0.8023684463410502
sI3
F0.28180088005039544
sI4
F0.97256175124690669
ssS'neem'
p863
(dp864
I0
F0.54332701888813151
sI1
F0.15290900073089986
sI2
F0.84403254945933204
sI3
F0.69053113722922377
sI4
F0.89673097533142854
ssS'8bahn'
p865
(dp866
I0
F-0.036506140955165356
sI1
F0.56250649986837997
sI2
F0.52506405966603586
sI3
F0.40033392432812653
sI4
F0.50194064981409015
ssS'katholiek'
p867
(dp868
I0
F0.74264022667340102
sI1
F0.11560091675552145
sI2
F-0.035067224903542651
sI3
F-0.076868244307283687
sI4
F0.93972501102829076
ssS'onze'
p869
(dp870
I0
F0.74920999985505821
sI1
F0.93912599536751418
sI2
F0.79944920520381113
sI3
F0.24539221782627163
sI4
F0.92423963924642427
ssS'hoogst'
p871
(dp872
I0
F0.56778756423131926
sI1
F0.33885821201917282
sI2
F0.53641311858599605
sI3
F0.67619569105735311
sI4
F0.4779370373029968
ssS'allemaal'
p873
(dp874
I0
F0.33832833249547983
sI1
F0.47061860736320843
sI2
F0.17902808494055211
sI3
F0.33116544462016811
sI4
F0.28967835188226942
ssS'xf3'
p875
(dp876
I0
F-0.14419184601753893
sI1
F0.11898697328653786
sI2
F0.23660557736822141
sI3
F1.1293950275132474
sI4
F0.24371221469290191
ssS'werken'
p877
(dp878
I0
F0.33604380328556605
sI1
F0.46617215549520113
sI2
F0.27144084543253205
sI3
F1.2134750915227761
sI4
F0.41684969054867393
ssS'lid'
p879
(dp880
I0
F1.3929711941476912
sI1
F0.43741066989458971
sI2
F0.62586741608969843
sI3
F-0.14940415626869399
sI4
F1.035246417432891
ssS'jouw'
p881
(dp882
I0
F0.63533941125756821
sI1
F0.58473593798718881
sI2
F0.2415039105828162
sI3
F0.50860222551732948
sI4
F0.11491435408735737
ssS'prijs'
p883
(dp884
I0
F0.1288379636602032
sI1
F0.59644830667481696
sI2
F0.80848972817898357
sI3
F0.41816921116220268
sI4
F0.027881495935119557
ssS'onderaan'
p885
(dp886
I0
F0.59602220876491485
sI1
F0.80313393205755645
sI2
F0.37511654188442017
sI3
F0.19862770846636146
sI4
F0.0042532884636924777
ssS'schrijnend'
p887
(dp888
I0
F0.97379820524695182
sI1
F0.020119164663425296
sI2
F0.74234630959974812
sI3
F0.27086407105857996
sI4
F0.9146609443433612
ssS'kansloze'
p889
(dp890
I0
F0.18655903856279063
sI1
F0.85921604401600538
sI2
F0.080413607312334615
sI3
F0.14370161322630209
sI4
F0.65836409462068113
ssS'christelijke'
p891
(dp892
I0
F0.27293305769201009
sI1
F0.96336546117286059
sI2
F0.55593623861823072
sI3
F0.97053695934489037
sI4
F0.46326780173837562
ssS'kan'
p893
(dp894
I0
F0.46968097044222423
sI1
F0.25837410845677877
sI2
F0.68770334620198581
sI3
F0.38023212246838028
sI4
F0.53029742048520812
ssS'totaal'
p895
(dp896
I0
F0.56632675569855384
sI1
F-0.031659592334796427
sI2
F0.61180962965851204
sI3
F1.037571878137197
sI4
F0.24771297606041789
ssS'zon'
p897
(dp898
I0
F0.56577369006035871
sI1
F0.66442952149605738
sI2
F0.48689553587606615
sI3
F0.42846961019947044
sI4
F0.17910471079509774
ssS'gevraagd'
p899
(dp900
I0
F-0.27071365129701519
sI1
F0.29108882920838558
sI2
F0.57687712296244298
sI3
F0.32189570413245033
sI4
F0.18078940091901166
ssS'mix'
p901
(dp902
I0
F0.45101688806896872
sI1
F0.59798242708098626
sI2
F0.24900805536730811
sI3
F0.32832826458291625
sI4
F0.41462014373237371
ssS'henny'
p903
(dp904
I0
F0.62907009826828864
sI1
F0.46495006939202382
sI2
F0.83522067283032397
sI3
F0.53814851888206217
sI4
F0.94060868273193043
ssS'gelooft'
p905
(dp906
I0
F0.64393797646737005
sI1
F0.76871503396311358
sI2
F0.46054902976418444
sI3
F0.89009016611441727
sI4
F0.77844083658331054
ssS'zou'
p907
(dp908
I0
F0.61966032000394111
sI1
F0.44050478785400632
sI2
F0.011602619352706957
sI3
F0.21982841098155209
sI4
F0.25097992689339088
ssS'oplossing'
p909
(dp910
I0
F-0.0028969309693181807
sI1
F0.92337669220683027
sI2
F0.771135875767753
sI3
F0.6546730466068319
sI4
F0.37589086735593957
ssS'mis'
p911
(dp912
I0
F0.79179004327515856
sI1
F0.31856223033374248
sI2
F0.93264005235340908
sI3
F0.17072638903897958
sI4
F0.17203377218122973
ssS'vanaf'
p913
(dp914
I0
F0.50531785312694855
sI1
F0.92430363979776187
sI2
F0.37201780568420018
sI3
F0.23733444850379967
sI4
F0.39531811528242006
ssS'kijken'
p915
(dp916
I0
F0.40857130367550343
sI1
F0.10336878915968377
sI2
F0.51752186109114284
sI3
F0.64230831993522131
sI4
F0.55990561348304679
ssS'jaar'
p917
(dp918
I0
F-1.0239041475521917
sI1
F0.91527984973976384
sI2
F0.41423808888730057
sI3
F1.0537912538829306
sI4
F0.85612217403246715
ssS'zeker'
p919
(dp920
I0
F0.88444335754229653
sI1
F0.37512288059059268
sI2
F0.97360824093799658
sI3
F0.93012115865141376
sI4
F0.95246194052814459
ssS'aarde'
p921
(dp922
I0
F0.74018638780021695
sI1
F0.54138109499309572
sI2
F0.9451938888084872
sI3
F0.21960925038287424
sI4
F0.8024084435118749
ssS'deens'
p923
(dp924
I0
F0.35488544681748091
sI1
F0.78716125144710769
sI2
F0.4748007894534626
sI3
F0.4355848610022986
sI4
F0.53517563715703831
ssS'daarna'
p925
(dp926
I0
F0.063648481945545995
sI1
F0.25065274959534573
sI2
F0.39255946847727813
sI3
F0.18941866753737563
sI4
F0.24649798643663515
ssS'zender'
p927
(dp928
I0
F0.13304853077408402
sI1
F0.74463252843058614
sI2
F0.11653297923716451
sI3
F0.76992516354759799
sI4
F0.86535432742640006
ssS'vloek'
p929
(dp930
I0
F0.96636671621945203
sI1
F0.134264587341201
sI2
F0.27789524738672922
sI3
F-0.069889504873655944
sI4
F0.11201450920368523
ssS'evolutietheorie'
p931
(dp932
I0
F0.24093240950060893
sI1
F0.35529033231510482
sI2
F0.52969966291569581
sI3
F-0.23652070399349809
sI4
F0.11467172711559834
ssS'gewaardeerd'
p933
(dp934
I0
F0.048112412122892086
sI1
F0.50598186045722426
sI2
F0.04072118495029544
sI3
F0.59382265696966163
sI4
F0.69570344780962046
ssS'duivel'
p935
(dp936
I0
F0.34638871806435306
sI1
F0.33004220041403148
sI2
F0.31202036745722178
sI3
F0.071973883023371113
sI4
F0.62979392411237722
ssS'zojuist'
p937
(dp938
I0
F0.98782878475536495
sI1
F0.66149311504252528
sI2
F0.45751569257294761
sI3
F-0.014829501175579071
sI4
F0.7079639916575069
ssS'2011'
p939
(dp940
I0
F-0.25900966811382092
sI1
F-0.093488642210367318
sI2
F0.98398955886218009
sI3
F0.2503068617456975
sI4
F0.53964344220700466
ssS'don'
p941
(dp942
I0
F0.70283950508527493
sI1
F0.56249746372365861
sI2
F0.59109136453375577
sI3
F0.25493951581995744
sI4
F0.87025115895217742
ssS'gepest'
p943
(dp944
I0
F0.15306505499843992
sI1
F0.17949136830845194
sI2
F0.8290125428403462
sI3
F0.13471826016710037
sI4
F0.37408901877977457
ssS'2230'
p945
(dp946
I0
F0.58999229956543364
sI1
F0.6157941677121509
sI2
F0.76304673754639007
sI3
F0.69822531124797138
sI4
F0.49222495847526176
ssS'pieter'
p947
(dp948
I0
F0.66220247605280735
sI1
F0.41378775701766823
sI2
F0.21933041528035585
sI3
F0.66773790332865168
sI4
F0.79778890505725786
ssS'later'
p949
(dp950
I0
F0.12544844571531372
sI1
F0.53725471923990731
sI2
F0.90756435760232523
sI3
F0.17747873847570045
sI4
F0.9334132966326385
ssS'ko'
p951
(dp952
I0
F0.98030767675023323
sI1
F0.088624498525134321
sI2
F0.12017577164943286
sI3
F-0.0079071863859962524
sI4
F0.32519686168165185
ssS'praat'
p953
(dp954
I0
F0.62617821806390195
sI1
F0.23453509119528637
sI2
F0.99077463504419694
sI3
F0.2705856835625523
sI4
F0.54484996966619437
ssS'hulde'
p955
(dp956
I0
F0.89025473112395193
sI1
F0.03239720990627263
sI2
F0.2471689136593693
sI3
F0.28053848540890897
sI4
F0.35015646462853062
ssS'denk'
p957
(dp958
I0
F0.44977478735689075
sI1
F0.8222129296739179
sI2
F0.033578474621662253
sI3
F-0.34037993922597115
sI4
F0.84820102858510693
ssS'oneens'
p959
(dp960
I0
F0.74504364772532039
sI1
F0.048371438588228614
sI2
F0.33035216845511278
sI3
F0.066452406858952581
sI4
F0.23105405979777285
ssS'gesticht'
p961
(dp962
I0
F0.46592141983827423
sI1
F0.5779470689400934
sI2
F0.63552477124984097
sI3
F0.81820268726425927
sI4
F0.015436949294202142
ssS'klopt'
p963
(dp964
I0
F0.85278716512042863
sI1
F0.67075819281464522
sI2
F0.072004785436715041
sI3
F0.092865969227347106
sI4
F0.6596945232423318
ssS'raar'
p965
(dp966
I0
F0.50364748045089236
sI1
F0.19478049499338851
sI2
F0.99675871751674516
sI3
F0.60390146322957972
sI4
F0.048367768649759488
ssS'metterdaad'
p967
(dp968
I0
F0.08306022296686548
sI1
F0.7583015269081701
sI2
F0.86325264773959287
sI3
F0.48965659175425214
sI4
F0.57346387707401003
ssS'licht'
p969
(dp970
I0
F0.42497996395333787
sI1
F0.68781851306837172
sI2
F0.030287507478610951
sI3
F0.82303482914396464
sI4
F0.35950226471865537
ssS'prettig'
p971
(dp972
I0
F0.8503758991106608
sI1
F0.72222942712790295
sI2
F0.26922895978240979
sI3
F0.1563175241169163
sI4
F0.93341007233654727
ssS'delen'
p973
(dp974
I0
F0.97115175095240469
sI1
F0.6441826513535871
sI2
F0.5116408108261159
sI3
F0.56852869803933836
sI4
F0.088854473156474226
ssS'aanstaande'
p975
(dp976
I0
F0.38489224904144298
sI1
F0.83764866720051434
sI2
F0.65054356493170962
sI3
F0.70656230946864984
sI4
F0.14950540410348939
ssS'heensto'
p977
(dp978
I0
F0.31856725534261654
sI1
F0.64358384610603048
sI2
F0.61661723491653753
sI3
F0.53820992168686599
sI4
F0.72425750210348405
ssS'trouwe'
p979
(dp980
I0
F0.63265969617662532
sI1
F0.25683159096775077
sI2
F0.61091552339490429
sI3
F0.73321607703584324
sI4
F0.71096985180581296
ssS'rtl'
p981
(dp982
I0
F0.57494463089759162
sI1
F0.18136604281116664
sI2
F0.46211154821269684
sI3
F0.13500147488622305
sI4
F0.064803289072160222
ssS'twee'
p983
(dp984
I0
F-0.12106960066094948
sI1
F-0.022490792214138126
sI2
F0.03870521592551146
sI3
F0.80517930346383937
sI4
F0.75670728950452648
ssS'belangrijk'
p985
(dp986
I0
F0.54061332242005211
sI1
F0.99253015226352292
sI2
F0.17609508779673685
sI3
F0.7105912422125028
sI4
F0.49113842106330369
ssS'orgelbespeling'
p987
(dp988
I0
F0.28522229319927411
sI1
F0.36018409249732164
sI2
F0.20695016044005929
sI3
F1.0340326160451971
sI4
F0.25916992345128448
ssS'krijgen'
p989
(dp990
I0
F0.31875849509201526
sI1
F0.10208376119267337
sI2
F0.31041390299085297
sI3
F0.94139022270561246
sI4
F0.51238959326940015
ssS'niet'
p991
(dp992
I0
F-0.66294512618959822
sI1
F0.44797971814569759
sI2
F0.48128362419773785
sI3
F0.28114848960493488
sI4
F0.29958533402195447
ssS'zenderco'
p993
(dp994
I0
F0.10455886473519076
sI1
F0.45575235021526112
sI2
F0.25159454062353576
sI3
F0.35991721329644644
sI4
F0.86414395869300153
ssS'hack'
p995
(dp996
I0
F0.64219263332127663
sI1
F0.92140923971377309
sI2
F0.57867429762167921
sI3
F0.89314948189267107
sI4
F0.364160703431121
ssS'headliner'
p997
(dp998
I0
F0.63982636054930819
sI1
F0.77254392287772011
sI2
F0.84176133606001879
sI3
F1.2677164584572609
sI4
F0.19108048653731077
ssS'knaap'
p999
(dp1000
I0
F0.14805198266054581
sI1
F0.77448776829579125
sI2
F0.10409873682552312
sI3
F0.84477581884556674
sI4
F0.90980658228129396
ssS'zeg'
p1001
(dp1002
I0
F0.79654843464460812
sI1
F0.20517070244665364
sI2
F-0.021269773296925688
sI3
F0.4392340784917797
sI4
F0.99525040349604421
ssS'gezelschap'
p1003
(dp1004
I0
F0.81212020195053525
sI1
F0.63985798354843404
sI2
F0.77772987602935084
sI3
F0.13961976894664202
sI4
F0.93738195090577769
ssS'daar'
p1005
(dp1006
I0
F0.97820383308677772
sI1
F0.85959841501785461
sI2
F0.9681407366303324
sI3
F0.26719110850514932
sI4
F0.23309616625053278
ssS'bff'
p1007
(dp1008
I0
F0.52308222414515326
sI1
F0.093884143873010487
sI2
F0.73469659675763566
sI3
F0.91988122371785697
sI4
F0.53051457560811899
ssS'alpduzes'
p1009
(dp1010
I0
F0.8101567914182306
sI1
F0.55334966509168426
sI2
F0.83832826138577921
sI3
F0.19992637434102853
sI4
F0.13597182301601682
ssS'moet'
p1011
(dp1012
I0
F0.8450965015558447
sI1
F0.21348062728601108
sI2
F0.59858255310376662
sI3
F0.47681202798984401
sI4
F0.67855271226713765
ssS'vampieren'
p1013
(dp1014
I0
F1.0477557718936745
sI1
F0.16706481044792959
sI2
F-0.20735983313427744
sI3
F-0.45647825500963884
sI4
F0.75541693171021185
ssS'striptease'
p1015
(dp1016
I0
F1.3617855919010675
sI1
F0.74897417489150409
sI2
F-0.04467900209246832
sI3
F0.14106815650364424
sI4
F1.0450916431203794
ssS'thema'
p1017
(dp1018
I0
F0.25815273175117898
sI1
F0.48202811830351333
sI2
F0.86374916040486516
sI3
F0.19759477868570716
sI4
F0.54831610401931796
ssS'winnen'
p1019
(dp1020
I0
F0.57944576189613195
sI1
F0.74968863421607135
sI2
F0.70913961013190374
sI3
F0.16118591315467579
sI4
F0.18129541922592088
ssS'sinterklaas'
p1021
(dp1022
I0
F0.1567832110994461
sI1
F0.025949608387644568
sI2
F0.84737117992687372
sI3
F0.21707837990597206
sI4
F0.46899768027870214
ssS'folder'
p1023
(dp1024
I0
F0.37469519539069807
sI1
F0.050931844242389189
sI2
F0.89759126041540827
sI3
F0.96322991819696158
sI4
F0.20698282670499407
ssS'opinie'
p1025
(dp1026
I0
F0.73378185024465659
sI1
F0.70701746889298489
sI2
F0.86401480041444145
sI3
F0.2273718822909945
sI4
F0.5914527672455463
ssS'doornbos'
p1027
(dp1028
I0
F0.13128866513349965
sI1
F0.44444644500934416
sI2
F0.95101784159882496
sI3
F0.96429294238729013
sI4
F-0.093414795236694256
ssS'actie'
p1029
(dp1030
I0
F1.0170930982334689
sI1
F0.0081223884938856072
sI2
F0.76298790077090084
sI3
F0.9327182069620723
sI4
F0.52751470230665143
ssS'toch'
p1031
(dp1032
I0
F0.34790029845158399
sI1
F0.15819029690715442
sI2
F0.63248612995839071
sI3
F-0.49114324810840665
sI4
F0.65533005230804653
ssS'nl2'
p1033
(dp1034
I0
F0.75077003988368352
sI1
F0.20537604722241506
sI2
F0.96543310981464536
sI3
F0.26149156858067074
sI4
F0.009151320152460854
ssS'dj'
p1035
(dp1036
I0
F0.22198540543729769
sI1
F0.29593618602452365
sI2
F0.18674678542978962
sI3
F0.57663528955878274
sI4
F0.33175774457218277
ssS'gratis'
p1037
(dp1038
I0
F0.034259090283795521
sI1
F0.23222717945782406
sI2
F0.487832903997439
sI3
F0.57476013112449342
sI4
F0.21664831155780298
ssS'aant'
p1039
(dp1040
I0
F0.84084319259733786
sI1
F0.93511779038006659
sI2
F0.64526759743365514
sI3
F-0.11050078247060163
sI4
F0.92374000670722534
ssS'de'
p1041
(dp1042
I0
F0.96506270273785422
sI1
F0.15021428128305025
sI2
F0.75381313738654221
sI3
F-0.17253709489799124
sI4
F0.74807072153911613
ssS'lunchen'
p1043
(dp1044
I0
F0.51763003985676803
sI1
F0.78760523979578334
sI2
F0.57902162351218533
sI3
F0.024614780402127626
sI4
F0.69118320137572731
ssS'beetje'
p1045
(dp1046
I0
F0.77355830936907211
sI1
F0.83754509820753775
sI2
F0.39042942818339454
sI3
F-0.1649597977168393
sI4
F0.43687437031022297
ssS'toneelstuk'
p1047
(dp1048
I0
F1.2962811756275554
sI1
F0.13092427202416396
sI2
F0.58920250424583731
sI3
F-0.024270730110223415
sI4
F0.4772815778693586
ssS'wordt'
p1049
(dp1050
I0
F-0.037191237863258494
sI1
F0.26321935958161552
sI2
F0.31174535033484252
sI3
F0.969758504449868
sI4
F0.90544538519940887
ssS'12'
p1051
(dp1052
I0
F0.054920744777220191
sI1
F0.82378896125751844
sI2
F0.76603369323584303
sI3
F0.38958499534862523
sI4
F0.17341525252172982
ssS'geen'
p1053
(dp1054
I0
F0.39605067927709725
sI1
F0.85609312767983758
sI2
F0.67960237632411036
sI3
F0.0043262069777502306
sI4
F0.8458227146347852
ssS'liedjes'
p1055
(dp1056
I0
F0.11840208165205228
sI1
F0.94959537071550271
sI2
F0.29101693577133952
sI3
F0.80888163581271111
sI4
F0.77119409191913635
ssS'darkskywise'
p1057
(dp1058
I0
F0.44750073405043206
sI1
F0.90343674764906445
sI2
F0.13181791149385519
sI3
F1.0226028703973957
sI4
F0.58386707400202853
ssS'hij'
p1059
(dp1060
I0
F0.1763985784791342
sI1
F0.32749654670869616
sI2
F0.76430794547349878
sI3
F0.53921548241830708
sI4
F0.19665526662660923
ssS'kutomroep'
p1061
(dp1062
I0
F0.61252819832054273
sI1
F0.47246882590888933
sI2
F0.060844587990708944
sI3
F0.20973346806945659
sI4
F0.16952260042919745
ssS'net'
p1063
(dp1064
I0
F0.39018161144647989
sI1
F0.64656800131477787
sI2
F0.09144437688083927
sI3
F0.05639601259582637
sI4
F0.24486879878084275
ssS'viervoeter'
p1065
(dp1066
I0
F0.71754615106569064
sI1
F0.57596036498904923
sI2
F0.84373729981350776
sI3
F0.068324334878991186
sI4
F0.30284520174662877
ssS'hoge'
p1067
(dp1068
I0
F1.2951321541544516
sI1
F0.75891311218753366
sI2
F0.41324170695103429
sI3
F-0.073229167093013373
sI4
F0.90641265829695583
ssS'nagekeken'
p1069
(dp1070
I0
F0.19296503838069523
sI1
F0.82398266951492938
sI2
F0.64771457718562475
sI3
F0.6293156428558121
sI4
F0.51769636754545556
ssS'kapoentje'
p1071
(dp1072
I0
F-0.18912180492888375
sI1
F0.11414075278878157
sI2
F0.12350617522165672
sI3
F0.51771894940142771
sI4
F0.82839712845331104
ssS'nieuws_'
p1073
(dp1074
I0
F0.64738070061555975
sI1
F0.63464948655436804
sI2
F0.60399440414239347
sI3
F0.31137562249987533
sI4
F0.41659608657519204
ssS'filtert'
p1075
(dp1076
I0
F0.57852162408328955
sI1
F0.066719017192233374
sI2
F0.45989592958773939
sI3
F0.85190898889861422
sI4
F0.90860734504869256
ssS'grap'
p1077
(dp1078
I0
F0.60637448581215148
sI1
F0.28265591080553004
sI2
F0.055766008919127349
sI3
F0.43174156485675647
sI4
F0.48331534181522084
ssS'whahaha'
p1079
(dp1080
I0
F0.48329687614545758
sI1
F0.68157367547054148
sI2
F0.40213853332141597
sI3
F1.1536707257257928
sI4
F0.12118857422180894
ssS'welke'
p1081
(dp1082
I0
F0.69300808952681914
sI1
F0.35812978912569871
sI2
F0.30277861347788865
sI3
F0.41292997679415444
sI4
F0.80436851989838398
ssS'leuk'
p1083
(dp1084
I0
F0.61163115697364068
sI1
F0.28712928558331152
sI2
F0.83411516527778562
sI3
F-0.32922946713882412
sI4
F0.52336125644839193
ssS'kijkcijfers'
p1085
(dp1086
I0
F0.69519994628836401
sI1
F0.91388140935943485
sI2
F0.18731315843768714
sI3
F-0.10445737843363365
sI4
F0.8569249698142597
ssS'orgel'
p1087
(dp1088
I0
F0.20799201440446313
sI1
F0.37956029156290233
sI2
F0.94112325820420117
sI3
F0.21181643454900531
sI4
F0.16320017747766657
ssS'leren'
p1089
(dp1090
I0
F0.75530560878992148
sI1
F0.37801116490080916
sI2
F0.21673045388548581
sI3
F0.71208287918254209
sI4
F0.61403829627289852
ssS'vier'
p1091
(dp1092
I0
F0.066933707007079013
sI1
F0.61335094783951449
sI2
F0.13425785031598036
sI3
F0.81057971175821353
sI4
F0.20001925257690556
ssS'iets'
p1093
(dp1094
I0
F0.28764711356026706
sI1
F0.54312171895859329
sI2
F0.076291665676062617
sI3
F0.65154567835327792
sI4
F0.66086935852244599
ssS'dorenbos'
p1095
(dp1096
I0
F0.69020883953625689
sI1
F0.53788692187275577
sI2
F0.18804272383196949
sI3
F0.4507004489795482
sI4
F0.46431539432052987
ssS'liefst'
p1097
(dp1098
I0
F0.70897251799792271
sI1
F0.017930278873343083
sI2
F0.77341739843523394
sI3
F0.61602327213900399
sI4
F0.39649282726752277
ssS'baasjes'
p1099
(dp1100
I0
F-0.00576410340537658
sI1
F0.024901538905158609
sI2
F0.06783243089140524
sI3
F0.66150898191707952
sI4
F0.75737577659402699
ssS'smakeloze'
p1101
(dp1102
I0
F0.099534414679530336
sI1
F0.79265598201050425
sI2
F0.68384653046518507
sI3
F0.23800455772936571
sI4
F0.68294645591359249
ssS'seculier'
p1103
(dp1104
I0
F0.56629166080783144
sI1
F0.34118638741264851
sI2
F0.96904842101589483
sI3
F0.43826153071020763
sI4
F0.33950502417002915
ssS'gedaan'
p1105
(dp1106
I0
F0.12169934893150128
sI1
F0.67705559976231144
sI2
F0.89352051178157699
sI3
F-0.041072128750993489
sI4
F0.37518004470576066
ssS'moeten'
p1107
(dp1108
I0
F0.56373857923397463
sI1
F0.072801485549649103
sI2
F0.87770193030435639
sI3
F0.82998171304201551
sI4
F0.25228960105390286
ssS'vind'
p1109
(dp1110
I0
F0.49394663875201816
sI1
F0.10041394653273876
sI2
F0.6563181969287657
sI3
F-0.2190426024525047
sI4
F0.71732590646297789
ssS'moetdatnou'
p1111
(dp1112
I0
F0.85687259464918109
sI1
F0.9589742953675211
sI2
F0.97389071683096462
sI3
F0.31723473953652198
sI4
F0.33576764705449214
ssS'collega'
p1113
(dp1114
I0
F0.60429041989432319
sI1
F0.33450420530835834
sI2
F0.36721339834976752
sI3
F0.56661428762788957
sI4
F0.79414466765048441
ssS'gevloekt'
p1115
(dp1116
I0
F0.58204182440802854
sI1
F0.9652449656494444
sI2
F0.64462582429076065
sI3
F0.4489211042626281
sI4
F0.59228179074173004
ssS'woensdag'
p1117
(dp1118
I0
F0.53491611653336957
sI1
F0.64309227297672023
sI2
F0.13378440415533299
sI3
F-0.072832599918530888
sI4
F0.73946486094646791
ssS'mea'
p1119
(dp1120
I0
F0.24695684012615995
sI1
F0.75645664666773149
sI2
F0.50852983869085311
sI3
F0.66904930425552389
sI4
F0.581475763238258
ssS'vijfde'
p1121
(dp1122
I0
F0.32591211091019562
sI1
F0.68288993726654645
sI2
F0.74326266250530593
sI3
F0.20202206018087662
sI4
F0.48825314820116267
ssS'kouverdrongendoorwodka'
p1123
(dp1124
I0
F0.93067352997909425
sI1
F0.77421897556570896
sI2
F0.28135494597269295
sI3
F-0.058811419122368092
sI4
F0.72301329731956709
ssS'best'
p1125
(dp1126
I0
F0.52682038575489276
sI1
F-0.13121072185492191
sI2
F0.12542550834860766
sI3
F-0.010820160335209925
sI4
F0.37221272474021827
ssS'gmail'
p1127
(dp1128
I0
F0.16947886661174411
sI1
F0.56781422128257109
sI2
F0.84890171107543955
sI3
F0.89762165580013875
sI4
F0.76251962867312284
ssS'benieuwd'
p1129
(dp1130
I0
F0.060852167680782318
sI1
F0.68508032875774005
sI2
F0.71741664328427057
sI3
F0.74749407209463259
sI4
F0.04538691714230661
ssS'vpro'
p1131
(dp1132
I0
F0.20435978360351642
sI1
F0.28603499566709073
sI2
F0.13460633517416523
sI3
F0.35316237329074696
sI4
F0.42414689151587703
ssS'commentaren'
p1133
(dp1134
I0
F1.1033718585312429
sI1
F0.05706423938811326
sI2
F-0.04805318797749579
sI3
F0.3217730157765718
sI4
F0.87131689308980476
ssS'3js'
p1135
(dp1136
I0
F0.65086397555088027
sI1
F0.024570059166086445
sI2
F0.9065623717017095
sI3
F0.40953040049506712
sI4
F0.42614993904148041
ssS'hebt'
p1137
(dp1138
I0
F-0.096873205162200479
sI1
F0.12714172657815523
sI2
F0.70036441876315136
sI3
F0.96261296456206957
sI4
F0.047468220325334917
ssS'bekendste'
p1139
(dp1140
I0
F0.47109685377054228
sI1
F0.064829372238216679
sI2
F0.42874292206212383
sI3
F0.68706027892964272
sI4
F0.083272016186430139
ssS'3'
(dp1141
I0
F0.42481075085851178
sI1
F0.12723302847387549
sI2
F0.69616070720375622
sI3
F0.5122984652021042
sI4
F0.36800721909177236
ssS'piemel'
p1142
(dp1143
I0
F1.7059715196158916
sI1
F0.096427840502648715
sI2
F0.25637878139031028
sI3
F-0.40319352337432202
sI4
F0.63062556396632896
ssS'vond'
p1144
(dp1145
I0
F0.80077590514342012
sI1
F0.018356671142292648
sI2
F0.38217509634680891
sI3
F-0.027338550989258723
sI4
F0.72620918005646962
ssS'omroep'
p1146
(dp1147
I0
F-0.1271764767809237
sI1
F0.35484858628740457
sI2
F0.75040410069123953
sI3
F0.58485482342073014
sI4
F0.14131931612257764
ssS'ondertussen'
p1148
(dp1149
I0
F0.078222665450546347
sI1
F0.48842058291206847
sI2
F0.57020627462803852
sI3
F0.55665727878378524
sI4
F0.053235070045765817
ssS'langsgekomen'
p1150
(dp1151
I0
F-0.086214522256286633
sI1
F0.96658177084483288
sI2
F0.76615939864510763
sI3
F1.0583512176913217
sI4
F0.30610830452958809
ssS'lekker'
p1152
(dp1153
I0
F0.74227093485202766
sI1
F0.27202005917824862
sI2
F0.38956230353025029
sI3
F0.50873959828064186
sI4
F0.82275017658939853
ssS'we'
p1154
(dp1155
I0
F0.042361560551826237
sI1
F0.5603472549578562
sI2
F1.0011176474279033
sI3
F1.1074700844422445
sI4
F0.0099750152739842331
ssS'artikel'
p1156
(dp1157
I0
F0.90058789742497192
sI1
F0.98233600475238991
sI2
F0.05462679394671862
sI3
F0.08459721500565931
sI4
F0.3573254395616447
ssS'kweepeer'
p1158
(dp1159
I0
F0.24733104664750558
sI1
F0.43798422301461964
sI2
F0.65355902523716769
sI3
F0.20779053689154364
sI4
F0.069266791974612107
ssS'jou'
p1160
(dp1161
I0
F0.17490733330659802
sI1
F0.94385781594561269
sI2
F0.80218620536191576
sI3
F0.34305734751744943
sI4
F0.74291409904675976
ssS'filmploeg'
p1162
(dp1163
I0
F0.39081949573076075
sI1
F0.79920768240075268
sI2
F0.62053982525220996
sI3
F0.58422249444315333
sI4
F0.21346192448240259
ssS'zoveel'
p1164
(dp1165
I0
F0.42836443296764892
sI1
F0.58280419038073183
sI2
F0.43549137351493644
sI3
F0.27947956124725054
sI4
F0.46050714274864119
ssS'uur'
p1166
(dp1167
I0
F0.122870011130067
sI1
F0.47611377493830231
sI2
F0.43599832613780892
sI3
F0.90537163599640136
sI4
F0.6561484396802324
ssS'landgoed'
p1168
(dp1169
I0
F0.064667051862965189
sI1
F0.38804976849725226
sI2
F0.0038065869309233894
sI3
F0.25261815480637612
sI4
F0.56439091876212033
ssS'elijah'
p1170
(dp1171
I0
F0.75685543038011627
sI1
F0.35872757398660016
sI2
F0.23008848345107077
sI3
F1.0289580821310289
sI4
F0.1839285815140892
ssS'basisscholen'
p1172
(dp1173
I0
F0.68711823143122208
sI1
F0.028342783978138851
sI2
F0.75398316666801135
sI3
F0.57999361160492324
sI4
F0.82926722952793896
ssS'zsm'
p1174
(dp1175
I0
F0.3203980151083114
sI1
F0.19610420041967597
sI2
F0.7314384824433493
sI3
F0.087242283905390031
sI4
F0.61195753259126517
ssS'bespreekbaar'
p1176
(dp1177
I0
F-0.14402382466623131
sI1
F0.33152630090418878
sI2
F0.022524321591017145
sI3
F0.36018923244681261
sI4
F0.77414417113964429
ssS'weg'
p1178
(dp1179
I0
F0.17189659156270998
sI1
F0.50496512507494218
sI2
F0.71448411949271795
sI3
F0.16173207597652964
sI4
F0.81260344670293605
ssS'vertrouwen'
p1180
(dp1181
I0
F0.09114654691302615
sI1
F0.043815482697628728
sI2
F0.77714398516717353
sI3
F0.38611187077796066
sI4
F0.39650273901023209
ssS'ja'
p1182
(dp1183
I0
F0.019421056874134875
sI1
F0.22254465120465633
sI2
F0.11809469309381303
sI3
F1.2817063606383909
sI4
F0.4286321692099504
ssS'voornemen'
p1184
(dp1185
I0
F0.10150832159296516
sI1
F0.78762895995019944
sI2
F0.9392503837034839
sI3
F0.1958236886991514
sI4
F0.84914057197580728
ssS'jaren'
p1186
(dp1187
I0
F0.46689553712721299
sI1
F0.44828810323693907
sI2
F0.046923063176025639
sI3
F0.10352556251041561
sI4
F0.95913532286676939
ssS'mond'
p1188
(dp1189
I0
F0.45875497806890048
sI1
F0.1079088213469051
sI2
F0.53595001671532538
sI3
F0.081657597084935793
sI4
F0.61300727266949351
ssS'aangevraagd'
p1190
(dp1191
I0
F0.71138299273603112
sI1
F0.21514093172915555
sI2
F0.093327253623418926
sI3
F0.52372396558723988
sI4
F0.2527814268137395
ssS'kunstje'
p1192
(dp1193
I0
F0.50660156417136248
sI1
F0.059335255626612314
sI2
F0.5108863289699348
sI3
F0.72708145282523851
sI4
F0.23305432234942985
ssS'figuren'
p1194
(dp1195
I0
F-0.089956262385503583
sI1
F0.96821376344293864
sI2
F0.42280439330514957
sI3
F0.95041274579592405
sI4
F0.91860219545360267
ssS'rijk'
p1196
(dp1197
I0
F0.53036625615123367
sI1
F0.55758474031880689
sI2
F0.46611995993784577
sI3
F0.9199629326463874
sI4
F0.89101657073535534
ssS'klinkt'
p1198
(dp1199
I0
F0.20995523145332556
sI1
F0.56427765425417897
sI2
F0.1743686417991345
sI3
F0.78112286458963476
sI4
F0.11664513939111862
ssS'insecten'
p1200
(dp1201
I0
F0.39053806759417287
sI1
F0.83818136330872028
sI2
F0.84731398088007548
sI3
F0.63152571055422657
sI4
F0.55739186634052817
ssS's'
(dp1202
I0
F-0.0029964915435860364
sI1
F0.77426781541980783
sI2
F0.61120430795934699
sI3
F0.06294332938758801
sI4
F0.30528441798725053
ssS'jongerendag'
p1203
(dp1204
I0
F0.89337200980449505
sI1
F0.26533397390896718
sI2
F0.25404073527227472
sI3
F0.50901221674840602
sI4
F0.5758540166835685
ssS'stukje'
p1205
(dp1206
I0
F0.15389424470745003
sI1
F0.59133610341293874
sI2
F0.57358328791847324
sI3
F0.53426922646523867
sI4
F0.27926449801440678
ssS'natasja'
p1207
(dp1208
I0
F0.10501153927383929
sI1
F0.12004140838004154
sI2
F0.888790146690003
sI3
F1.0224791119313792
sI4
F0.28999646523514738
ssS'kijktip'
p1209
(dp1210
I0
F0.72517626309930716
sI1
F0.11133711513459363
sI2
F0.19380655911714201
sI3
F-0.10072823581469403
sI4
F0.70059286776942975
ssS'veel'
p1211
(dp1212
I0
F0.17272879834081978
sI1
F0.17119259075687687
sI2
F0.33339656155459396
sI3
F0.57489149497648107
sI4
F0.6795448053787323
ssS'magdatwel'
p1213
(dp1214
I0
F0.83466509801087796
sI1
F0.046865418480458679
sI2
F0.45111187568455829
sI3
F0.95040722559880175
sI4
F0.61468140473049937
ssS'medewerkers'
p1215
(dp1216
I0
F0.59075670112389156
sI1
F0.38810551130797238
sI2
F0.77323219810370203
sI3
F0.62003986005363898
sI4
F0.96052741420813659
ssS'x201d'
p1217
(dp1218
I0
F0.81238218581973709
sI1
F0.043751267334909895
sI2
F0.031532002826325886
sI3
F0.14375786305259078
sI4
F0.23939068359447613
ssS'jammer'
p1219
(dp1220
I0
F0.9006016536098187
sI1
F0.45715808350543602
sI2
F0.074657097306520231
sI3
F-0.33958532568431377
sI4
F0.96450820043451602
ssS'kijkcijferkanon'
p1221
(dp1222
I0
F0.3197547657225186
sI1
F0.94985061372902269
sI2
F0.90276732838228801
sI3
F0.69104004466315205
sI4
F0.71247130804872671
ssS'x201c'
p1223
(dp1224
I0
F0.70312814993851414
sI1
F0.51354364129365493
sI2
F0.74952553942544597
sI3
F-0.065087159043020801
sI4
F0.69429894237957679
ssS'schepping'
p1225
(dp1226
I0
F0.44923441189850927
sI1
F0.096958721030318745
sI2
F0.57711340500006447
sI3
F1.5182021671035104
sI4
F0.70682332903025169
ssS'evolutiegerelateerde'
p1227
(dp1228
I0
F1.04846684769931
sI1
F0.67026003964048519
sI2
F0.28238235065828615
sI3
F0.51111746600261021
sI4
F0.034843736160114332
ssS'erbij'
p1229
(dp1230
I0
F-0.21904520932302821
sI1
F0.43608439745307659
sI2
F0.46718003919503087
sI3
F0.90669567017084429
sI4
F0.48810307060487945
ssS'cd'
p1231
(dp1232
I0
F0.657769830375597
sI1
F0.1186317753244413
sI2
F0.35471238561444302
sI3
F0.61607801578246157
sI4
F0.91985279907110618
ssS'vals'
p1233
(dp1234
I0
F0.20216306743538989
sI1
F0.50977072077091035
sI2
F0.90306734727033255
sI3
F0.9703963169787323
sI4
F0.14187276931166784
ssS'gelderlander'
p1235
(dp1236
I0
F0.51777458653513897
sI1
F0.88290239670940562
sI2
F0.55509734204525341
sI3
F0.80431970450529056
sI4
F0.48054221666370606
ssS'65'
p1237
(dp1238
I0
F0.84841997564758598
sI1
F0.22811994992754819
sI2
F0.34737222154493597
sI3
F0.036660383819647722
sI4
F0.83248188489640085
ssS'2202'
p1239
(dp1240
I0
F0.66207902589029966
sI1
F0.17427629791678939
sI2
F0.064036878208123552
sI3
F0.71396960112931551
sI4
F0.69518477219579322
ssS'opnieuw'
p1241
(dp1242
I0
F0.13756309985541221
sI1
F0.20528931456387928
sI2
F0.32766831594871676
sI3
F0.72563133049022022
sI4
F0.65196115043722558
ssS'marc'
p1243
(dp1244
I0
F0.19981571839558954
sI1
F0.40329987917746629
sI2
F0.24897510117989055
sI3
F0.38121392784354508
sI4
F0.32963602441584888
ssS'snel'
p1245
(dp1246
I0
F0.096013067871161567
sI1
F0.71027746564621075
sI2
F0.65767237260523104
sI3
F0.45396554182351784
sI4
F0.59210677062432482
ssS'afgezien'
p1247
(dp1248
I0
F-0.023813891293356808
sI1
F0.19353176187925242
sI2
F0.14506142823185458
sI3
F0.54221600770507439
sI4
F0.95376961286105943
ssS'zenders'
p1249
(dp1250
I0
F0.92687461373269686
sI1
F0.15041015080535933
sI2
F0.31361805276855204
sI3
F-0.18344921210422649
sI4
F0.21121335140808836
ssS'verwondt'
p1251
(dp1252
I0
F0.3089804054946072
sI1
F0.50796100868495386
sI2
F0.80336151805028766
sI3
F1.1930469828535784
sI4
F0.35731358410183883
ssS'zingen'
p1253
(dp1254
I0
F0.061074467085897886
sI1
F0.12047697008032067
sI2
F0.41226594810782846
sI3
F0.59792642805338714
sI4
F0.565266111756344
ssS'inclusief'
p1255
(dp1256
I0
F0.3232932156006757
sI1
F0.70040576144946753
sI2
F0.53570992924405791
sI3
F1.2113132136123232
sI4
F0.32916419941598613
ssS'kerstspecial'
p1257
(dp1258
I0
F0.41663418132537372
sI1
F0.28695946506484538
sI2
F0.32809968542128493
sI3
F0.86147961122771355
sI4
F0.19795673625022428
ssS'dus'
p1259
(dp1260
I0
F0.16528927652903419
sI1
F0.75581001042553464
sI2
F0.89062425365227982
sI3
F0.43139989100592624
sI4
F0.79060795284951524
ssS'gefeliciteerd'
p1261
(dp1262
I0
F0.44413494446741036
sI1
F0.056232640534906911
sI2
F0.60186174931480185
sI3
F-0.050890113344273034
sI4
F0.47010611055799617
ssS'website'
p1263
(dp1264
I0
F0.033317822677955203
sI1
F0.23277265056846441
sI2
F0.17179359612111719
sI3
F0.93639383080999805
sI4
F0.86318130898261547
ssS'volgend'
p1265
(dp1266
I0
F0.19517289467979129
sI1
F0.75025633670065839
sI2
F0.55572199893250462
sI3
F0.47102041166757846
sI4
F0.30058217595269238
ssS'helaas'
p1267
(dp1268
I0
F0.30014379519171114
sI1
F0.75153071308321151
sI2
F0.90331462063609991
sI3
F0.035287939500129852
sI4
F0.35591527497921938
ssS'crimineel'
p1269
(dp1270
I0
F0.44000282112565681
sI1
F0.36987866035136518
sI2
F0.62823525558312254
sI3
F0.7288282301630914
sI4
F0.010503994973282513
ssS'druk'
p1271
(dp1272
I0
F-0.015384807505751261
sI1
F0.56821088218629323
sI2
F0.47324077176725193
sI3
F0.41426614266054207
sI4
F0.47108132664840902
ssS'zich'
p1273
(dp1274
I0
F-0.06662550810806879
sI1
F0.90848104459430001
sI2
F0.26711899835257974
sI3
F0.47149799774006917
sI4
F0.96219205550488229
ssS'goede'
p1275
(dp1276
I0
F0.50549159955709266
sI1
F0.075682888911526497
sI2
F0.2501927578420407
sI3
F0.73878573675294679
sI4
F0.74873722558079059
ssS'echte'
p1277
(dp1278
I0
F0.19069217135046107
sI1
F0.95302123443860787
sI2
F0.69617576448278273
sI3
F-0.24656779520747907
sI4
F0.011597769782028287
ssS'mooiste'
p1279
(dp1280
I0
F0.34686818075252795
sI1
F0.17239942774123579
sI2
F0.150189213509133
sI3
F0.0014501670329407743
sI4
F0.66924440897814486
ssS'wateigenlijk'
p1281
(dp1282
I0
F0.70528742527936339
sI1
F0.46747428095199967
sI2
F0.2586724314457573
sI3
F0.5327655787584249
sI4
F0.94668202169377835
ssS'volgt'
p1283
(dp1284
I0
F0.25082621633825242
sI1
F0.95974837608591201
sI2
F0.93822372351508909
sI3
F0.93478687726104781
sI4
F0.27584502834806879
ssS'volgens'
p1285
(dp1286
I0
F-0.30949806939786578
sI1
F0.92376159493615395
sI2
F0.6789294300862444
sI3
F0.77150970569789723
sI4
F0.026241542961680953
ssS'bravo'
p1287
(dp1288
I0
F0.032667924097105283
sI1
F0.73257272605958945
sI2
F0.12242546687558177
sI3
F-0.14616497413339705
sI4
F0.37056783029195822
ssS'zoekt'
p1289
(dp1290
I0
F0.72462567533578648
sI1
F-0.022871805472187638
sI2
F0.47472719637544381
sI3
F0.37632055340430881
sI4
F0.72610697312726502
ssS'vanavond'
p1291
(dp1292
I0
F0.74699985850671824
sI1
F0.91125794505350655
sI2
F0.56422165362044985
sI3
F-0.24563500475376329
sI4
F0.88988584390704584
ssS'opvoedprogramma'
p1293
(dp1294
I0
F0.36571527063284914
sI1
F0.69591031408564863
sI2
F0.067121712399507205
sI3
F0.90959578861110757
sI4
F0.31896540345338581
ssS'schatjes'
p1295
(dp1296
I0
F-0.08467060183746028
sI1
F0.61070841720006519
sI2
F0.87740407259091946
sI3
F0.46239606020713858
sI4
F0.49642239248040537
ssS'doen'
p1297
(dp1298
I0
F0.57093154610806607
sI1
F0.66597349690335605
sI2
F0.30321535845499659
sI3
F0.69252051672887582
sI4
F0.99775040984607999
ssS'krant'
p1299
(dp1300
I0
F0.45891991116913522
sI1
F-0.030012285816891218
sI2
F0.38574845967552646
sI3
F0.85950567077532214
sI4
F0.71111514957787292
ssS'geweldig'
p1301
(dp1302
I0
F0.2500786668654727
sI1
F0.02660817025681576
sI2
F0.70990262861906173
sI3
F0.68538368535938587
sI4
F0.67827324846060244
ssS'vandaag'
p1303
(dp1304
I0
F0.3410576950485843
sI1
F0.92494385846374028
sI2
F0.59494742805520195
sI3
F1.0757179941501169
sI4
F0.34604155667664027
ssS'misplaatste'
p1305
(dp1306
I0
F0.45796615862642825
sI1
F0.55172721529577118
sI2
F0.345100526143297
sI3
F0.21071193367710483
sI4
F0.8979983358411685
ssS'boodschap'
p1307
(dp1308
I0
F0.078061362249963948
sI1
F0.84545772022850674
sI2
F2.2220596327399696e-05
sI3
F0.59635735796479239
sI4
F0.21436768311675264
ssS'bijbelverhalen'
p1309
(dp1310
I0
F0.36397553781262321
sI1
F0.70018251819246768
sI2
F0.38970055894742045
sI3
F0.58163633493448363
sI4
F0.88981324459211297
ssS'bevestigen'
p1311
(dp1312
I0
F0.78711005301097758
sI1
F0.8160078110572877
sI2
F0.67518390763268388
sI3
F-0.21647917109921203
sI4
F0.1989716478181921
ssS'harder'
p1313
(dp1314
I0
F0.63477780043948606
sI1
F0.52013244165356898
sI2
F0.33202988755120144
sI3
F0.088794390929874165
sI4
F0.48014190777950028
ssS'response7059'
p1315
(dp1316
I0
F0.16617515701353383
sI1
F0.24377373365630278
sI2
F0.23937987868488825
sI3
F0.25267438303889667
sI4
F0.57661913686816613
ssS'n'
(dp1317
I0
F0.71798088033457985
sI1
F0.41365256498083514
sI2
F0.88111985375189594
sI3
F0.3988257309372743
sI4
F0.16503738373299748
ssS'bikini'
p1318
(dp1319
I0
F0.10065627336590276
sI1
F0.87552451896095163
sI2
F0.26730810247536085
sI3
F0.9990836480692924
sI4
F0.29399397211245681
ssS'hahaha'
p1320
(dp1321
I0
F0.3858670141519725
sI1
F0.62813277492763175
sI2
F0.27773130141544394
sI3
F0.31161001534963673
sI4
F0.90397155274122254
ssS'maandje'
p1322
(dp1323
I0
F0.89361018508211421
sI1
F0.077168463073955321
sI2
F0.20235130656457315
sI3
F0.93141020434316235
sI4
F0.60860890725096062
ssS'mariska'
p1324
(dp1325
I0
F0.71352906581423847
sI1
F0.68552604072441747
sI2
F0.34068104396806609
sI3
F-0.30276674910306461
sI4
F0.94873711282447137
ssS'reclames'
p1326
(dp1327
I0
F0.64209275314447167
sI1
F0.6929892160164518
sI2
F0.77179899174067945
sI3
F0.31741914218528816
sI4
F0.93100705889021262
ssS'31'
p1328
(dp1329
I0
F0.41281571974370446
sI1
F0.099070965569078642
sI2
F0.93390626252153008
sI3
F0.55945604494789425
sI4
F0.80682446642900141
ssS'hidden3'
p1330
(dp1331
I0
F-8.9530293086789712
ssS'hidden2'
p1332
(dp1333
I0
F-1.3664247756014609
ssS'hidden1'
p1334
(dp1335
I0
F2.2019335825874551
ssS'hidden0'
p1336
(dp1337
I0
F7.5022176387610475
ssS'10000'
p1338
(dp1339
I0
F0.16748099663005181
sI1
F0.90579537176372149
sI2
F0.47011199517849811
sI3
F0.33842150718685193
sI4
F0.85890408406163155
ssS'hidden5'
p1340
(dp1341
I0
F0.37235084813737535
ssS'hidden4'
p1342
(dp1343
I0
F2.928915845370724
ssS'vol'
p1344
(dp1345
I0
F0.21197451509061893
sI1
F0.60166296664132846
sI2
F0.98254427588262672
sI3
F0.34504986977540913
sI4
F0.88763648130326422
ssS'is'
p1346
(dp1347
I0
F0.21376110155150876
sI1
F0.39186013511151679
sI2
F0.61334105661315652
sI3
F0.8533698427912636
sI4
F0.21937529679727871
ssS'koffiekoffietijd'
p1348
(dp1349
I0
F-0.085672570201207762
sI1
F0.14199862073011818
sI2
F0.32096798406833377
sI3
F0.9260342085003429
sI4
F0.54701533822281256
ssS'afwachten'
p1350
(dp1351
I0
F0.45091708316287132
sI1
F0.61768183087441275
sI2
F0.57933273903958593
sI3
F0.63212811964370108
sI4
F0.7742270677461397
ssS'enge'
p1352
(dp1353
I0
F0.72254978479151155
sI1
F0.76955851038433754
sI2
F0.20707342065315865
sI3
F-0.16855300145141128
sI4
F0.87283004970985256
ssS'vn'
p1354
(dp1355
I0
F0.052922759791575437
sI1
F0.084461374146714827
sI2
F0.49517958192124917
sI3
F0.056461811471969964
sI4
F0.3900191699502783
ssS'woensdagavond'
p1356
(dp1357
I0
F-0.0068659573001777149
sI1
F0.13327919332727531
sI2
F0.9105440709922672
sI3
F0.77593318881313644
sI4
F-0.034549957878390263
ssS'bias'
p1358
(dp1359
I0
F4.0607927332031508
sI1
F0.60668964263023384
sI2
F0.9026109585393256
sI3
F2.2128551971802657
sI4
F0.88110265689296841
ssS'politiebureau'
p1360
(dp1361
I0
F-0.41640628759097825
sI1
F0.48961914325265399
sI2
F1.0800113561302935
sI3
F1.2135029527037626
sI4
F0.14482126221294822
ssS'ie'
p1362
(dp1363
I0
F0.3859231400264676
sI1
F0.73999312585867139
sI2
F0.82591728742519588
sI3
F0.86499935778696735
sI4
F0.73503428880523936
ssS'blijesmiley'
p1364
(dp1365
I0
F-0.35597145426750987
sI1
F0.042888449615740898
sI2
F0.24322441149993243
sI3
F1.3627991222536993
sI4
F0.29796717179535082
ssS'hond'
p1366
(dp1367
I0
F0.38136725657526932
sI1
F0.77103439646637473
sI2
F0.62334691145024401
sI3
F0.44164619928825105
sI4
F0.55062114220169167
ssS'pas'
p1368
(dp1369
I0
F0.28824882514254929
sI1
F0.69786281749442591
sI2
F0.027896742183372285
sI3
F0.34415131687138267
sI4
F0.83449203323995147
ssS'fotos'
p1370
(dp1371
I0
F0.057180429463203106
sI1
F0.093854447917437619
sI2
F0.22206379567909582
sI3
F0.35953153279962785
sI4
F0.91484893748966056
ssS'kunstsector'
p1372
(dp1373
I0
F-0.14891007072867307
sI1
F0.25343016114144895
sI2
F0.33056121654169729
sI3
F0.8313314720020446
sI4
F0.90540425888796716
ssS'aanrader'
p1374
(dp1375
I0
F0.77686304138955042
sI1
F0.56714486553489551
sI2
F0.14763100502408902
sI3
F-0.29345001017583899
sI4
F0.11797560037456777
ssS'buyt'
p1376
(dp1377
I0
F0.33057362665324741
sI1
F0.23560495386078423
sI2
F0.98083979176014602
sI3
F0.23642198737572909
sI4
F0.71506009816405292
ssS'niks'
p1378
(dp1379
I0
F0.0013028022657196258
sI1
F0.81454964552384634
sI2
F0.42080586966703043
sI3
F0.86602610701469018
sI4
F0.1865202206919887
ssS'toegetreden'
p1380
(dp1381
I0
F0.079358637501316998
sI1
F0.40676165147520904
sI2
F0.40608382482684102
sI3
F0.87538570151553685
sI4
F0.39286173801687241
ssS'pad'
p1382
(dp1383
I0
F0.30154421068810849
sI1
F0.72026929373904347
sI2
F0.15302136705857425
sI3
F0.80886600699107503
sI4
F0.2852795027662744
ssS'opsteker'
p1384
(dp1385
I0
F0.8833823194714141
sI1
F0.34127864179814832
sI2
F0.49321615038639027
sI3
F0.32301446404688794
sI4
F0.32651131003122252
ssS'fles'
p1386
(dp1387
I0
F0.65620230371937782
sI1
F0.62616874072264339
sI2
F0.69389550251447552
sI3
F0.54242753401409127
sI4
F0.29731690222453055
ssS'sfeerbeelden'
p1388
(dp1389
I0
F0.94862588227732814
sI1
F0.28880960789153026
sI2
F0.58472335935103559
sI3
F0.10353107999515783
sI4
F0.21363410101651237
ssS'bijbellezers'
p1390
(dp1391
I0
F0.50057392099193876
sI1
F0.60131391983194971
sI2
F0.39725873023439356
sI3
F0.65053438189113455
sI4
F0.80857470756218786
ssS'ndnl'
p1392
(dp1393
I0
F0.79206787577215376
sI1
F0.80656560058648163
sI2
F0.8593307913108944
sI3
F0.44745684029924265
sI4
F0.15178710379410379
ssS'afspraken'
p1394
(dp1395
I0
F-0.33750670667304261
sI1
F0.48702857540742567
sI2
F0.66235353431872634
sI3
F0.86356369038974579
sI4
F0.36829886451846561
ssS'acdc'
p1396
(dp1397
I0
F0.06046451972649064
sI1
F0.68190441339063512
sI2
F0.090971992784350683
sI3
F0.54027366144216349
sI4
F0.40131915928918188
ssS'positieve'
p1398
(dp1399
I0
F0.84632296939717089
sI1
F0.87629753390425236
sI2
F0.62737032540275084
sI3
F0.35674590809842588
sI4
F0.19079461336653142
ssS'joehoe'
p1400
(dp1401
I0
F0.46922035663520234
sI1
F0.45645379908032924
sI2
F0.33660615471334715
sI3
F0.43621877604393933
sI4
F0.25176186802069866
ssS'mij'
p1402
(dp1403
I0
F-0.31033663865366218
sI1
F0.24188909316563673
sI2
F0.68781410442875002
sI3
F0.77724728982089575
sI4
F0.83267751702027537
ssS'actueel'
p1404
(dp1405
I0
F0.75319295841322886
sI1
F0.24603188684202362
sI2
F0.036011812575951443
sI3
F0.70610774092994422
sI4
F0.92988640714318616
ssS'weer'
p1406
(dp1407
I0
F-0.22212743183652706
sI1
F0.44879667856082517
sI2
F-0.20319890815280053
sI3
F0.15277318660045217
sI4
F0.63870138607521776
ssS'stamet'
p1408
(dp1409
I0
F0.12611498705427432
sI1
F0.90038104599378221
sI2
F0.9135681101207922
sI3
F0.98291790492666997
sI4
F0.59929887742943277
ssS'veldhuizen'
p1410
(dp1411
I0
F-0.19044675115300666
sI1
F0.90125321815449844
sI2
F0.35959087427493364
sI3
F0.96306503260829512
sI4
F0.12411480782291143
ssS'tegelijkertijd'
p1412
(dp1413
I0
F0.51375500404589292
sI1
F0.15993038609226859
sI2
F-0.008979821544624348
sI3
F0.018463636612032267
sI4
F0.51606520774708275
ssS'hebben'
p1414
(dp1415
I0
F0.28689739272841031
sI1
F0.80118002032560143
sI2
F0.060772914897120035
sI3
F0.14259129639300192
sI4
F0.29265542057378668
ssS'euro'
p1416
(dp1417
I0
F0.59380360026256551
sI1
F0.15318751890977417
sI2
F-0.085700027134661308
sI3
F0.45733515504895794
sI4
F0.41821494106636725
ssS'televisie'
p1418
(dp1419
I0
F0.69895101436362317
sI1
F0.41551472986680332
sI2
F0.15815557043515827
sI3
F0.44354481690871039
sI4
F0.558207695973989
ssS'frozen'
p1420
(dp1421
I0
F-0.20481259645054942
sI1
F0.13424065518373357
sI2
F1.0184671750224712
sI3
F1.2712779703617088
sI4
F0.12529749077866431
ssS'cynisch'
p1422
(dp1423
I0
F0.26746390328767411
sI1
F0.42902119052635873
sI2
F0.091042849230124234
sI3
F0.056243383273487192
sI4
F0.19251414451234716
ssS'oprichting'
p1424
(dp1425
I0
F0.60251850394871265
sI1
F0.46777837914893866
sI2
F0.26780438333841283
sI3
F0.77450810826831895
sI4
F0.65835960133498872
ssS'presentator'
p1426
(dp1427
I0
F-0.049142380144387293
sI1
F0.1192566246975624
sI2
F0.63704976047153483
sI3
F0.90406230655938791
sI4
F0.9946768908221949
ssS'opkrikken'
p1428
(dp1429
I0
F0.74847358861305657
sI1
F0.53129008713785253
sI2
F0.98465954520646282
sI3
F0.75571963809402865
sI4
F0.98182824828633242
ssS'almere'
p1430
(dp1431
I0
F0.38432257301324252
sI1
F0.80032245634083998
sI2
F0.23366569026606882
sI3
F0.269808862889241
sI4
F0.080502962730470487
ssS'satirische'
p1432
(dp1433
I0
F0.76544900648050629
sI1
F0.93272931080123633
sI2
F0.075694617227247282
sI3
F0.40531351614046812
sI4
F0.59765544392619763
ssS'drie'
p1434
(dp1435
I0
F0.58702745059818606
sI1
F0.2105468170027647
sI2
F0.82736362141063613
sI3
F0.022776203997362514
sI4
F0.06017057562499576
ssS'muppetshow'
p1436
(dp1437
I0
F0.18439546588734673
sI1
F0.44714695114454445
sI2
F0.059130974702776534
sI3
F0.62813448797245575
sI4
F0.24342590631618954
ssS'the'
p1438
(dp1439
I0
F0.017253365205407604
sI1
F0.73847676859765332
sI2
F0.90624235181679058
sI3
F0.44228529483674273
sI4
F0.66515873743183607
ssS'haas'
p1440
(dp1441
I0
F0.30809843068718662
sI1
F0.020846802250183056
sI2
F0.9753392071612601
sI3
F0.45620366645495186
sI4
F0.45820727622494284
ssS'slechts'
p1442
(dp1443
I0
F0.59568762226378458
sI1
F0.66534789424718277
sI2
F0.31284963467901022
sI3
F0.3457423073530258
sI4
F0.64519720606646214
ssS'gezet'
p1444
(dp1445
I0
F0.9118551857730689
sI1
F0.38613550883648895
sI2
F0.85210769679307341
sI3
F0.56544070151525638
sI4
F0.67919348694190396
ssS'besef'
p1446
(dp1447
I0
F-0.17114592109827304
sI1
F0.20331589092233435
sI2
F0.20761975595937179
sI3
F0.48118154149533349
sI4
F0.079375660891776237
ssS'wonen'
p1448
(dp1449
I0
F0.076660089478424093
sI1
F0.10384797935209134
sI2
F0.45173257793837734
sI3
F0.13420370727516728
sI4
F0.28434383647468547
ssS'naast'
p1450
(dp1451
I0
F0.121787459872821
sI1
F0.11658159261476503
sI2
F0.15247091732734269
sI3
F0.37502980755871945
sI4
F0.77490215829217435
ssS'zestig'
p1452
(dp1453
I0
F0.61839549870536326
sI1
F0.90244008312505797
sI2
F0.86689426522779689
sI3
F0.17800317354624409
sI4
F0.5546356922480048
ssS'vrouw'
p1454
(dp1455
I0
F-0.070325072294171481
sI1
F0.099991473504818573
sI2
F0.079317675188394735
sI3
F0.8018859755005413
sI4
F0.49174519066976791
ssS'ned3'
p1456
(dp1457
I0
F0.32139291982706081
sI1
F0.78709253321391626
sI2
F0.46139817659213844
sI3
F0.51490438128956095
sI4
F0.28251851960020885
ssS'ned2'
p1458
(dp1459
I0
F0.67074403051845211
sI1
F0.92167436802435354
sI2
F0.092134832188840596
sI3
F-0.29284161635042849
sI4
F0.31427351437511131
ssS'camerawerk'
p1460
(dp1461
I0
F0.13639281370853693
sI1
F0.51511993423758295
sI2
F0.55791937744896702
sI3
F0.34365023616429174
sI4
F0.71746456027201777
ssS'yey'
p1462
(dp1463
I0
F0.78534214883565634
sI1
F0.21040841519074788
sI2
F-0.043951481961854097
sI3
F0.18902897292956183
sI4
F0.3618027626916081
ssS'not'
p1464
(dp1465
I0
F0.40621754894365025
sI1
F0.26808468219776321
sI2
F0.63503270547366775
sI3
F1.3606562618781386
sI4
F-0.41732946341458932
ssS'jongerendaggevoel'
p1466
(dp1467
I0
F1.016070086582666
sI1
F0.78253877040475772
sI2
F0.20471296621279575
sI3
F0.26850714735592174
sI4
F0.21486493834932102
ssS'anders'
p1468
(dp1469
I0
F0.15964719836905999
sI1
F0.27471884817760123
sI2
F0.60975685098830557
sI3
F-0.14638407785785568
sI4
F0.76443436815483534
ssS'gehad'
p1470
(dp1471
I0
F0.89733722103085323
sI1
F0.20629434647510234
sI2
F0.62472330817994426
sI3
F0.48991138517157296
sI4
F0.76007919422734715
ssS'goedgel'
p1472
(dp1473
I0
F0.19266832797015096
sI1
F0.964288061898816
sI2
F0.047053916634646226
sI3
F0.72466099121381988
sI4
F0.28381548057731171
ssS'veelwijferij'
p1474
(dp1475
I0
F0.019701888585001905
sI1
F0.65954827806585414
sI2
F0.4838635392456842
sI3
F0.2303594806701095
sI4
F0.51009193694194777
ssS'typisch'
p1476
(dp1477
I0
F0.66630362827568268
sI1
F0.68210418652070348
sI2
F0.13153161171807215
sI3
F0.77489573512850451
sI4
F0.53732700960832436
ssS'cherry'
p1478
(dp1479
I0
F1.0139689592692642
sI1
F0.718590356369879
sI2
F0.7520311994078388
sI3
F0.50877515161499831
sI4
F0.59146371468283687
ssS'esprit'
p1480
(dp1481
I0
F0.2405847888820688
sI1
F0.09484006185989545
sI2
F0.68532328112905161
sI3
F0.26507006643018427
sI4
F0.8390416758209448
ssS'had'
p1482
(dp1483
I0
F0.10843172097675605
sI1
F0.40842434774178371
sI2
F0.13871207835775801
sI3
F0.39189339993782801
sI4
F0.067941673636740724
ssS'wel'
p1484
(dp1485
I0
F-0.13183141516372177
sI1
F0.027008061841179414
sI2
F0.4210048988761399
sI3
F0.83173379498597522
sI4
F0.32011542574516899
ssS'bemoeit'
p1486
(dp1487
I0
F0.093880792153004419
sI1
F0.5193155662276322
sI2
F0.073038519948162614
sI3
F0.73664325504666262
sI4
F0.33055507344814256
ssS'4'
(dp1488
I0
F0.47010954557460005
sI1
F0.1069583201301874
sI2
F0.036756299670348151
sI3
F0.84841982543119254
sI4
F0.362624309438139
ssS'opvoeden'
p1489
(dp1490
I0
F0.89951476379505124
sI1
F0.95842345011145369
sI2
F0.014976919070085538
sI3
F0.80907797255571956
sI4
F0.22274030683639659
ssS'ineens'
p1491
(dp1492
I0
F0.35231444000244982
sI1
F0.90672218799796633
sI2
F0.39051158023108645
sI3
F0.44928029973726047
sI4
F0.062789878024501616
ssS'maanden'
p1493
(dp1494
I0
F0.19803827778889421
sI1
F0.74441369338303831
sI2
F0.64205734427069383
sI3
F0.57088529818303002
sI4
F0.7786093174603208
ssS'tijd'
p1495
(dp1496
I0
F0.49415118236306016
sI1
F0.39113026632418091
sI2
F0.93562328243590087
sI3
F1.057367546889953
sI4
F0.60297628540584625
ssS'humanisme'
p1497
(dp1498
I0
F0.63940947521738245
sI1
F0.2402548228503619
sI2
F0.23903313480947616
sI3
F0.64815498643153679
sI4
F0.3002515513943127
ssS'fascinerend'
p1499
(dp1500
I0
F0.42142006457505349
sI1
F0.21146377422708021
sI2
F0.029881001100717338
sI3
F0.3814943989562159
sI4
F0.3972030611996476
ssS'to'
p1501
(dp1502
I0
F0.53806493383093312
sI1
F0.43852827233102692
sI2
F0.82602213851458217
sI3
F0.25803586171335308
sI4
F0.62913186538788901
ssS'jeugdzorg'
p1503
(dp1504
I0
F0.0075820745726590576
sI1
F0.33556064872036362
sI2
F0.51005055524343024
sI3
F-0.14919878311407297
sI4
F0.68778078330446535
ssS'tsja'
p1505
(dp1506
I0
F0.9138643783374204
sI1
F0.66102446580734819
sI2
F0.14994576540557936
sI3
F0.10369545572495105
sI4
F0.16383844244190665
ssS'rusland'
p1507
(dp1508
I0
F0.68058190835734567
sI1
F0.085572046706132818
sI2
F0.68762088046900005
sI3
F0.017558232202564552
sI4
F0.43131033013134057
ssS'slimme'
p1509
(dp1510
I0
F0.089234092075866148
sI1
F0.59606069465415068
sI2
F0.84276714725204904
sI3
F0.50753156410990408
sI4
F0.48009822433455479
ssS'krapuliteitenalarm'
p1511
(dp1512
I0
F0.74022747929031885
sI1
F0.91500872408069045
sI2
F0.74071780267208531
sI3
F0.46528281907511332
sI4
F0.20655981460989944
ssS'xf3k'
p1513
(dp1514
I0
F0.22565867657686087
sI1
F0.87007713225487748
sI2
F0.12545609310606226
sI3
F0.32913733538749462
sI4
F0.91256101262056988
ssS'xe8'
p1515
(dp1516
I0
F0.58036742548430142
sI1
F-0.0054191050266464815
sI2
F0.38461906843700411
sI3
F0.30530924936144316
sI4
F0.55907338141143315
ssS'xe9'
p1517
(dp1518
I0
F0.43331890503960252
sI1
F0.79505073089527301
sI2
F0.93150488223291206
sI3
F0.8353163793606545
sI4
F0.91004600054284923
ssS'd'
(dp1519
I0
F0.24942895449158387
sI1
F0.2384841194934815
sI2
F0.62698946263899247
sI3
F0.60905637257485701
sI4
F0.50062831344826164
ssS'gedachtegoed'
p1520
(dp1521
I0
F0.95073852503437639
sI1
F0.37722057036926243
sI2
F0.46319135038528264
sI3
F-0.10804434718695295
sI4
F0.31689673375060767
ssS'pianist'
p1522
(dp1523
I0
F0.69107455333461354
sI1
F0.34053080662229607
sI2
F0.64803233590818865
sI3
F0.12848396190250239
sI4
F0.63602736971665763
ssS'heerlijke'
p1524
(dp1525
I0
F0.61811192573097429
sI1
F0.93075155717208924
sI2
F0.5901522132783511
sI3
F0.73480106352625241
sI4
F0.95191507695150024
ssS'like'
p1526
(dp1527
I0
F0.88018547098984756
sI1
F0.34806122960950603
sI2
F0.14078058429344695
sI3
F0.50733266117463605
sI4
F0.41978529962460204
ssS'kijkt'
p1528
(dp1529
I0
F0.23984085880729575
sI1
F0.61512546129523604
sI2
F0.74552093250982032
sI3
F-0.15806999989459988
sI4
F0.30237127619431553
ssS'ncrv'
p1530
(dp1531
I0
F0.80709662704575602
sI1
F0.52702175770639637
sI2
F0.57092821378963332
sI3
F0.2000093518051867
sI4
F0.49823215137489135
ssS'vd'
p1532
(dp1533
I0
F0.02731945012780531
sI1
F0.47568053501011986
sI2
F0.45513520815836128
sI3
F1.2818737777063274
sI4
F0.15188332013368894
ssS'gezinsdag'
p1534
(dp1535
I0
F0.085440455824165235
sI1
F0.075109493460872936
sI2
F0.92522077437391625
sI3
F0.62760403760826133
sI4
F0.3806596790043551
ssS'sinds'
p1536
(dp1537
I0
F0.29653104109815925
sI1
F0.80397918715187799
sI2
F0.42795023598574661
sI3
F0.98330013672095962
sI4
F0.84020368305077386
ssS'vertegenwoordigd'
p1538
(dp1539
I0
F0.91715524999655995
sI1
F0.28267959631549106
sI2
F0.67420633072459146
sI3
F0.16968155428483739
sI4
F0.47713892952050468
ssS'niels'
p1540
(dp1541
I0
F0.88468660055686921
sI1
F0.32312468411812284
sI2
F0.8054735742904604
sI3
F0.58821035118758869
sI4
F0.39567366378097507
ssS'nu'
p1542
(dp1543
I0
F-0.57462827883795764
sI1
F0.47491057647227353
sI2
F-0.065851626970120467
sI3
F0.74693922736199581
sI4
F0.21679786208112226
ssS'janken'
p1544
(dp1545
I0
F0.84767123814560486
sI1
F0.87879906122736962
sI2
F0.7670156323497479
sI3
F0.5211851987138636
sI4
F0.41241386990375395
ssS'pedojagers'
p1546
(dp1547
I0
F0.20833840450157537
sI1
F0.64050927279315539
sI2
F0.39133108514455012
sI3
F0.84806095213325994
sI4
F0.49331744498627111
ssS't'
(dp1548
I0
F-0.061853001815914313
sI1
F0.90008180200886323
sI2
F0.11654760623656468
sI3
F0.33420384889187438
sI4
F0.012375382928646683
ssS'gezondheidskrant'
p1549
(dp1550
I0
F0.84751766900847669
sI1
F0.56629506615764003
sI2
F0.58174701112641647
sI3
F0.6414325417055019
sI4
F0.60291015049835994
ssS'heen'
p1551
(dp1552
I0
F0.85693026148244722
sI1
F0.79071541970871595
sI2
F0.37562012120175053
sI3
F0.17727163489341977
sI4
F0.19111027301955338
ssS'vanmorgen'
p1553
(dp1554
I0
F0.54616367761684359
sI1
F0.047338808062054795
sI2
F0.24236977183424621
sI3
F0.28622306797092278
sI4
F0.29723477106683888
ssS'kennen'
p1555
(dp1556
I0
F0.2050608975419603
sI1
F0.85536420812498781
sI2
F0.049378508599585424
sI3
F0.50084302427376237
sI4
F0.32510712597512836
ssS'kosten'
p1557
(dp1558
I0
F0.80649053094503398
sI1
F0.071161025507963938
sI2
F0.91084652935635313
sI3
F0.88538429892502757
sI4
F0.097411455533855981
ssS'hoofdstuk'
p1559
(dp1560
I0
F0.34692675080203061
sI1
F0.75392455573261696
sI2
F0.26261469607086219
sI3
F0.89298880295063399
sI4
F0.97049429168851675
ssS'wensen'
p1561
(dp1562
I0
F0.13029258472281785
sI1
F0.12131908562427875
sI2
F0.51495544003411275
sI3
F0.061947246790335746
sI4
F0.35426114044380008
ssS'elke'
p1563
(dp1564
I0
F0.091402118352490333
sI1
F0.77612334129344596
sI2
F0.56119697535668323
sI3
F1.0227347954833117
sI4
F0.039490587578882276
ssS'pingu'
p1565
(dp1566
I0
F0.50350684686939651
sI1
F0.18322878661123201
sI2
F0.37606949817144691
sI3
F0.52978391788600232
sI4
F0.52792432260229549
ssS'twitter'
p1567
(dp1568
I0
F0.93909568846999203
sI1
F0.29764092600198733
sI2
F0.013072920006922289
sI3
F0.36094348215556088
sI4
F0.57943482612484443
ssS'zijn'
p1569
(dp1570
I0
F-0.016172344115978052
sI1
F0.23897365085870265
sI2
F0.32033934941322795
sI3
F0.4128153375993997
sI4
F0.026460304977432837
ssS'begin'
p1571
(dp1572
I0
F0.4852794150815013
sI1
F0.59213172774845857
sI2
F0.91154454507278071
sI3
F0.47832841947066046
sI4
F0.076287921301763192
ssS'vliegende'
p1573
(dp1574
I0
F0.75976833058800564
sI1
F0.50557315397163816
sI2
F0.46199216165717577
sI3
F0.83083262687682924
sI4
F0.5584428466857031
ssS'bedorenbos'
p1575
(dp1576
I0
F0.58194677353755697
sI1
F0.26959237651921125
sI2
F0.68791335045328994
sI3
F1.2593680064676247
sI4
F0.20822136645145417
ssS'tumblr'
p1577
(dp1578
I0
F0.44570701227500731
sI1
F0.89984519874332591
sI2
F0.045142461466678531
sI3
F0.079457958691644029
sI4
F0.4353952068863518
ssS'holleeder'
p1579
(dp1580
I0
F0.21385370163409162
sI1
F0.17362068092266822
sI2
F0.1503808831616914
sI3
F0.76549774000127935
sI4
F0.85491949784150578
ssS'home'
p1581
(dp1582
I0
F0.46582565633484946
sI1
F0.12572886178583664
sI2
F0.2869625589572653
sI3
F0.44573247383676673
sI4
F0.037128161390721802
ssS'meest'
p1583
(dp1584
I0
F0.073266974197697621
sI1
F0.99465343500568759
sI2
F0.15985163564723703
sI3
F0.84139769189656066
sI4
F0.20118539490861856
ssS'werkt'
p1585
(dp1586
I0
F0.45791168304398933
sI1
F-0.19933501884309882
sI2
F0.99132938075261912
sI3
F1.5617797400976112
sI4
F0.71343956559640265
ssS'mooi'
p1587
(dp1588
I0
F1.3894944612190863
sI1
F1.044390343225525
sI2
F0.55765830699817731
sI3
F-0.36035508957505197
sI4
F0.97308199649173377
ssS'ieder'
p1589
(dp1590
I0
F0.69638985658630115
sI1
F0.29327373084739278
sI2
F0.46790078564519444
sI3
F0.14414124411337784
sI4
F0.63139172404790156
ssS'gewonnen'
p1591
(dp1592
I0
F0.81394041743165746
sI1
F0.95386525091666641
sI2
F0.16757283018291699
sI3
F0.13624909028024418
sI4
F0.75872267745825706
ssS'slachtoffers'
p1593
(dp1594
I0
F0.95931027613476205
sI1
F0.21516259546344152
sI2
F0.17675190619521478
sI3
F-0.30785989106168593
sI4
F0.5873197402855006
ssS'tegenwicht'
p1595
(dp1596
I0
F0.95355493400468061
sI1
F0.37609927313893421
sI2
F0.61205467167286198
sI3
F0.51376971741445276
sI4
F0.59163979282995538
ssS'stem'
p1597
(dp1598
I0
F0.27412806562115555
sI1
F0.75408904049038983
sI2
F0.8214209789290281
sI3
F0.65581534443788436
sI4
F0.66838888731276025
ssS'opvretende'
p1599
(dp1600
I0
F0.85657826788278424
sI1
F0.54054461186007163
sI2
F0.59048635145791728
sI3
F0.70966702972470763
sI4
F0.89088468482031502
ssS'tweederangs'
p1601
(dp1602
I0
F0.48085654417093637
sI1
F0.74990390657910788
sI2
F0.29795411393856885
sI3
F0.20265402555603085
sI4
F0.16729427949375292
ssS'doet'
p1603
(dp1604
I0
F0.16363547475238249
sI1
F0.65998223009374557
sI2
F0.87168038611315113
sI3
F-0.115555231084565
sI4
F0.90778084662980429
ssS'houden'
p1605
(dp1606
I0
F0.36835920054796895
sI1
F0.33360886379332982
sI2
F0.87934430050712498
sI3
F0.32443080471975366
sI4
F0.51776296463127469
ssS'?'
(dp1607
I0
F-0.44975546323926724
sI1
F0.64001483448137619
sI2
F0.3569970266474719
sI3
F0.61977801989697168
sI4
F-0.13347101924952023
ssS'jongeren'
p1608
(dp1609
I0
F0.70171714116222927
sI1
F0.78345590968276468
sI2
F0.40863886533509819
sI3
F-0.52222571621060809
sI4
F0.55249200571824275
ssS'woord'
p1610
(dp1611
I0
F0.36466802651592978
sI1
F0.46081056430726025
sI2
F0.071020114931024086
sI3
F0.43824892827716233
sI4
F0.91110532094858299
ssS'indrukwekkende'
p1612
(dp1613
I0
F0.38982554913634482
sI1
F0.13018747153511731
sI2
F0.61681615629431263
sI3
F0.16357880777388617
sI4
F0.86645577883523273
ssS'volgen'
p1614
(dp1615
I0
F-0.39936300112223461
sI1
F0.60302721563616479
sI2
F0.55672924952386782
sI3
F0.96235287629177091
sI4
F0.97921266904512116
ssS'stel'
p1616
(dp1617
I0
F0.3317386025316687
sI1
F0.35739275887858118
sI2
F0.75396431185848645
sI3
F0.59862633096355289
sI4
F0.67998702508199405
ssS'voelt'
p1618
(dp1619
I0
F0.096473921386442535
sI1
F0.85543725050101727
sI2
F0.98230365018001631
sI3
F1.1355441930562167
sI4
F0.84230225242158552
ssS'huisman'
p1620
(dp1621
I0
F0.52948980479292262
sI1
F0.79795665626672885
sI2
F0.46172737340336739
sI3
F0.678825623147845
sI4
F0.22574194429568853
ssS'imposante'
p1622
(dp1623
I0
F0.46881677337212879
sI1
F0.88229974343150175
sI2
F0.28189441578681884
sI3
F0.97983374451144001
sI4
F0.349008775670205
ssS'1930'
p1624
(dp1625
I0
F0.79670597164761625
sI1
F0.58551655505788502
sI2
F0.76683142326140852
sI3
F0.081387505471172711
sI4
F0.10390830471100028
ssS'graag'
p1626
(dp1627
I0
F-0.13692833688252201
sI1
F0.93330887141229746
sI2
F0.228608633264136
sI3
F0.84811292367290769
sI4
F0.16737567159447342
ssS'achj'
p1628
(dp1629
I0
F0.2504632639758575
sI1
F0.3385540491877253
sI2
F0.91890980431731284
sI3
F0.6048143207527612
sI4
F0.82739393364744651
ssS'onzin'
p1630
(dp1631
I0
F0.50989655526925626
sI1
F0.91044911392211469
sI2
F0.096591705160281177
sI3
F0.32087706826289575
sI4
F0.512446819661316
ssS'devijfdedag'
p1632
(dp1633
I0
F0.043474575226588076
sI1
F0.54683921340674879
sI2
F0.28998624616845026
sI3
F-0.19566822127608285
sI4
F0.38152511658790522
ssS'_'
(dp1634
I0
F0.90552392019649264
sI1
F0.67641840435444867
sI2
F0.73555223059560271
sI3
F0.47136767994952594
sI4
F0.31157829003217635
ssS'on'
p1635
(dp1636
I0
F0.59656285264784181
sI1
F0.46243850770921713
sI2
F0.2622496893835109
sI3
F0.36374569501162024
sI4
F0.11462390167641817
ssS'om'
p1637
(dp1638
I0
F0.069049207625385245
sI1
F0.18678192955488632
sI2
F0.74806271309396521
sI3
F0.86569650465723524
sI4
F0.50880709651059552
ssS'historische'
p1639
(dp1640
I0
F0.55074655852370102
sI1
F0.4365955356872781
sI2
F0.068402334484720911
sI3
F0.3657199660779859
sI4
F0.70214750171764939
ssS'gestaan'
p1641
(dp1642
I0
F0.53529540553716048
sI1
F0.013259402675139073
sI2
F0.50046353796006293
sI3
F0.76886630826347113
sI4
F0.26147097640719114
ssS'oh'
p1643
(dp1644
I0
F0.69804710403522907
sI1
F0.45573181879210306
sI2
F0.30090149463397092
sI3
F0.71908630081792924
sI4
F0.98858505086048443
ssS'elkaar'
p1645
(dp1646
I0
F0.23017657300863803
sI1
F0.77570818644507755
sI2
F0.69303332604414969
sI3
F0.78110192381154764
sI4
F0.070564165051367922
ssS'supremestrt'
p1647
(dp1648
I0
F0.077197077182152476
sI1
F0.33470284792229449
sI2
F0.34513739018731454
sI3
F0.3586682346259692
sI4
F0.071687088644626584
ssS'prachtig'
p1649
(dp1650
I0
F0.869664588427708
sI1
F0.98684480531190033
sI2
F-0.09625474795235002
sI3
F0.39319836139288677
sI4
F0.10569779557883155
ssS'alleen'
p1651
(dp1652
I0
F1.1160369721673167
sI1
F0.84279083058238657
sI2
F0.98867516005401013
sI3
F-0.12467761783360783
sI4
F0.031225482166213119
ssS'o'
(dp1653
I0
F-0.081426053309798185
sI1
F0.40736863268718543
sI2
F0.89450433022851683
sI3
F0.73993554261613126
sI4
F0.57564062387882198
ssS'pelgrimscode'
p1654
(dp1655
I0
F1.3224175310830391
sI1
F0.38188429070880026
sI2
F0.38424772085249992
sI3
F-0.073808979707494407
sI4
F0.97631696019544434
ssS'papua'
p1656
(dp1657
I0
F0.73911415658672341
sI1
F0.14377604851897929
sI2
F0.20507686484745419
sI3
F-0.12294513792393533
sI4
F0.35835065619705342
ssS'ander'
p1658
(dp1659
I0
F0.26688902063778858
sI1
F0.48142018122700014
sI2
F0.3615663172429982
sI3
F0.66985507607814554
sI4
F0.9033525666671407
ssS'hier'
p1660
(dp1661
I0
F0.70116266365834545
sI1
F0.91445346666043081
sI2
F0.54680969968111637
sI3
F0.48963208266470343
sI4
F0.80431725045173219
ssS'kro'
p1662
(dp1663
I0
F0.78974736655069344
sI1
F0.26162230921411239
sI2
F0.48491777949738207
sI3
F0.44271914997043132
sI4
F0.50211716035756793
ssS'schrijven'
p1664
(dp1665
I0
F0.16832462426829387
sI1
F0.3892859691175195
sI2
F0.90322438469040256
sI3
F0.5047340714449865
sI4
F0.4035782300964495
ssS'idd'
p1666
(dp1667
I0
F0.81721098338999532
sI1
F0.27736141350898813
sI2
F0.57422596527687686
sI3
F-0.29106866940486753
sI4
F0.76627601240663001
ssS'proost'
p1668
(dp1669
I0
F0.54213997984372897
sI1
F0.46555850025549689
sI2
F0.74548390267417686
sI3
F0.9297468166774423
sI4
F0.29598322075863565
ssS'road'
p1670
(dp1671
I0
F0.88142526452596837
sI1
F0.26420827669568825
sI2
F0.040795375683734286
sI3
F0.32457085228967408
sI4
F0.50331264247633223
ssS'gewoon'
p1672
(dp1673
I0
F0.70157012293385379
sI1
F0.82012041693848625
sI2
F0.68742517528005276
sI3
F-0.26450439544792637
sI4
F0.31528328537097539
ssS'waarschijnlijk'
p1674
(dp1675
I0
F0.098885961439374018
sI1
F0.7466235595104771
sI2
F0.13333137016844926
sI3
F0.6390583134318224
sI4
F0.68770251830663887
ssS'xf6rdinator'
p1676
(dp1677
I0
F0.72961586095214648
sI1
F0.38212895452698886
sI2
F0.10444448964186293
sI3
F0.50029886525394829
sI4
F0.32072090092077632
ssS'bbc'
p1678
(dp1679
I0
F0.14750346555515229
sI1
F0.7155044468397096
sI2
F0.49277248106282845
sI3
F0.58263807171095738
sI4
F0.69269356282126959
ssS'mari'
p1680
(dp1681
I0
F0.56315935503034675
sI1
F0.3402453422035121
sI2
F0.81118539143231649
sI3
F0.6474595729212741
sI4
F0.34409953544337363
ssS'realityserie'
p1682
(dp1683
I0
F-0.2618879052719818
sI1
F0.69279247413024114
sI2
F0.64229297162093602
sI3
F0.84293683413505527
sI4
F0.47530663287444908
ssS'samen'
p1684
(dp1685
I0
F0.87272744783322997
sI1
F0.38068145797690894
sI2
F-0.25596275535225615
sI3
F0.16741233562699645
sI4
F0.27744635821773744
ssS'liet'
p1686
(dp1687
I0
F0.80641914491745292
sI1
F0.4187735786580743
sI2
F0.023911152308799612
sI3
F0.21214211006797917
sI4
F0.95932570475247692
ssS'vaak'
p1688
(dp1689
I0
F0.72346012719876618
sI1
F0.38239286112632676
sI2
F0.50202756697848283
sI3
F-0.30003319817377055
sI4
F0.36118872892387666
ssS'duyns'
p1690
(dp1691
I0
F0.55508534279858202
sI1
F0.41378575086275304
sI2
F0.29279915946712781
sI3
F-0.1671935116089282
sI4
F0.50025929390189061
ssS'slecht'
p1692
(dp1693
I0
F0.9339459155019888
sI1
F0.62123090333773523
sI2
F0.51338692359131333
sI3
F0.036028466417562424
sI4
F0.46904516086585812
ssS'belangrijke'
p1694
(dp1695
I0
F0.056444472582602753
sI1
F0.71659750144391843
sI2
F0.13828273927268911
sI3
F0.52665928019118846
sI4
F0.00244876639476637
ssS'van'
p1696
(dp1697
I0
F-0.84473456899800414
sI1
F1.0005236668752699
sI2
F0.61901994103610158
sI3
F0.29277919811230485
sI4
F0.27399541990358123
ssS'vroegte'
p1698
(dp1699
I0
F0.28810956401716853
sI1
F0.95315035248121427
sI2
F0.26643377831263765
sI3
F0.75637523188658884
sI4
F0.31452632519581925
ssS'zwaar'
p1700
(dp1701
I0
F0.59170141559796174
sI1
F0.52181063309844999
sI2
F0.55013271402049813
sI3
F0.051070113755809027
sI4
F0.44067557796686274
ssS'brut'
p1702
(dp1703
I0
F0.22801798622313721
sI1
F0.54261324550674972
sI2
F0.55826246616780295
sI3
F1.0461435677779534
sI4
F0.51946544067788114
ssS'vallen'
p1704
(dp1705
I0
F0.27949386587638902
sI1
F0.15251473645893773
sI2
F0.70621053993841443
sI3
F0.55497851555429012
sI4
F0.542558876455567
ssS'hey'
p1706
(dp1707
I0
F0.080944829973592328
sI1
F0.4514421146515018
sI2
F0.40079526745054378
sI3
F-0.094130707631366245
sI4
F0.67848043582870654
ssS'lol'
p1708
(dp1709
I0
F0.53147880910333201
sI1
F0.37677421924433774
sI2
F0.70673506629969474
sI3
F-0.0034213401230994817
sI4
F0.8059912319216902
ssS'politie'
p1710
(dp1711
I0
F-0.29729469373445283
sI1
F-0.10297067032976391
sI2
F0.35730728772520265
sI3
F0.98213393840934382
sI4
F0.27744821316166851
ssS'wekelijks'
p1712
(dp1713
I0
F0.087430033176896502
sI1
F0.24913568253863597
sI2
F0.22339241756950007
sI3
F0.86685257704730623
sI4
F0.92322399846498104
ssS'zie'
p1714
(dp1715
I0
F0.41572311298233078
sI1
F0.16384244573788939
sI2
F0.72193464860296319
sI3
F0.60496683032464571
sI4
F0.47977858963729303
ssS'lot'
p1716
(dp1717
I0
F0.056297735215833498
sI1
F0.69848632985997472
sI2
F0.72971110271124617
sI3
F0.42470073768922328
sI4
F0.66953279212136818
ssS'achter'
p1718
(dp1719
I0
F0.37954968443266784
sI1
F0.95802052934552617
sI2
F0.74213653677735758
sI3
F0.77738068738613586
sI4
F0.80663492368212131
ssS'gehoop'
p1720
(dp1721
I0
F0.74297536660730978
sI1
F0.19438967988234473
sI2
F0.21585484304764962
sI3
F0.26893957556983861
sI4
F0.79670371900627557
ssS'wellicht'
p1722
(dp1723
I0
F-0.23586429764122638
sI1
F0.0053420008825759467
sI2
F0.8510097314982723
sI3
F2.3576406293172312
sI4
F-0.35073775909092147
ssS'prutpraat'
p1724
(dp1725
I0
F0.58406909134240159
sI1
F0.78828699980045314
sI2
F0.057888245399734369
sI3
F0.29789364159499238
sI4
F0.54159777333305514
ssS'wat'
p1726
(dp1727
I0
F-0.11927159277209635
sI1
F0.34110248163776424
sI2
F0.58319499554477872
sI3
F-0.44141577669841342
sI4
F0.5664532536021244
ssS'was'
p1728
(dp1729
I0
F-0.29379612674573841
sI1
F0.42562654633181557
sI2
F0.63663231473472859
sI3
F0.94104443506855018
sI4
F0.50221176283567281
ssS'gij'
p1730
(dp1731
I0
F0.6414202961764508
sI1
F0.17514589367206229
sI2
F0.725467372377543
sI3
F0.47456474501728985
sI4
F0.71255990266744218
ssS'ellende'
p1732
(dp1733
I0
F0.31772481976588274
sI1
F0.58772058105420755
sI2
F0.093639227573581091
sI3
F0.43525919746033015
sI4
F0.82446986326479532
ssS'hard'
p1734
(dp1735
I0
F0.19683288829613985
sI1
F0.25528658581042835
sI2
F0.72331787292202054
sI3
F0.7745623851353497
sI4
F0.11471276449076478
ssS'dagen'
p1736
(dp1737
I0
F0.87099720103744815
sI1
F0.032429775405301627
sI2
F0.69605613371097974
sI3
F0.41782527603290043
sI4
F0.57014292344998863
ssS'jongern'
p1738
(dp1739
I0
F0.57330003703534482
sI1
F0.8148615255947379
sI2
F0.8870118261294303
sI3
F0.70180961598502745
sI4
F0.27276329429480523
ssS'nederland'
p1740
(dp1741
I0
F0.86993357593100074
sI1
F0.52685779864505511
sI2
F0.0057654623821970039
sI3
F0.41536772507906566
sI4
F0.63294736440890642
ssS'echofon'
p1742
(dp1743
I0
F0.64135727707452883
sI1
F0.09218675446303369
sI2
F0.33620156079283126
sI3
F0.78093354839093676
sI4
F0.62575821485075933
ssS'leiden'
p1744
(dp1745
I0
F0.23609358851818316
sI1
F0.5504876109864385
sI2
F0.46715537950359159
sI3
F0.47971478684732538
sI4
F0.22816338545475529
ssS'triest'
p1746
(dp1747
I0
F0.25660643355509938
sI1
F0.74155903376495236
sI2
F0.32489032893697573
sI3
F0.54145205422516496
sI4
F0.93949811468966826
ssS'blijktuitmijngewicht'
p1748
(dp1749
I0
F0.30996925134832065
sI1
F0.67677781857770325
sI2
F0.79652941715618175
sI3
F0.55664651001665311
sI4
F0.58818349325320263
ssS'zouden'
p1750
(dp1751
I0
F0.11694906978807097
sI1
F0.11393348654696556
sI2
F0.19129990585252543
sI3
F0.042976299711586473
sI4
F0.068198823099723638
ssS'behandeld'
p1752
(dp1753
I0
F0.40534333248039933
sI1
F0.97039917302828194
sI2
F0.19150010749728402
sI3
F0.070107330578711199
sI4
F0.7245142986999964
ssS'serie'
p1754
(dp1755
I0
F-0.2997700306970561
sI1
F-0.090212536709894389
sI2
F0.78190275389676345
sI3
F0.64616756608922177
sI4
F0.62133780793466786
ssS'familie'
p1756
(dp1757
I0
F0.43321315881667383
sI1
F0.38323286038686943
sI2
F0.15120203257874024
sI3
F1.155380229472627
sI4
F0.35191329534267796
ssS'zwervend'
p1758
(dp1759
I0
F-0.06940315971929048
sI1
F0.6941479877369463
sI2
F0.36421772869743668
sI3
F0.35513620988312833
sI4
F0.45713703120816274
ssS'e'
(dp1760
I0
F0.25703645435433964
sI1
F0.13854406394309396
sI2
F0.604004675306414
sI3
F0.67458867280165535
sI4
F0.75322042955540047
ssS'loterij'
p1761
(dp1762
I0
F0.51187683303361942
sI1
F0.11978959605395928
sI2
F0.25181696261374725
sI3
F1.0877705842310283
sI4
F0.43910210572194969
ssS'advertentie'
p1763
(dp1764
I0
F0.2878315382839835
sI1
F0.68119034809834145
sI2
F0.52559514484437031
sI3
F0.50553721386946182
sI4
F0.95579173418948649
ssS'mailen'
p1765
(dp1766
I0
F0.52259760917690901
sI1
F0.14754695312496632
sI2
F0.96952665332914545
sI3
F0.86253025729541688
sI4
F0.69060704111670324
ssS'kiekn'
p1767
(dp1768
I0
F0.78958419801325508
sI1
F0.8740368419063036
sI2
F0.26315225481325599
sI3
F0.32967597634516854
sI4
F0.29813445389959659
ssS'helemaal'
p1769
(dp1770
I0
F0.48491454853329852
sI1
F0.9426484710820181
sI2
F0.58956370817791648
sI3
F1.39880909388548
sI4
F-0.014378721347118695
ssS'stuiterende'
p1771
(dp1772
I0
F0.54042300251202557
sI1
F0.87997801998780878
sI2
F0.60968675013433726
sI3
F0.92155806165884435
sI4
F0.036511086977187676
ssS'mooie'
p1773
(dp1774
I0
F0.78688860079820822
sI1
F0.12340298438309824
sI2
F0.90237699693687234
sI3
F-0.070647213938171916
sI4
F0.060029729186218829
ssS'ouders'
p1775
(dp1776
I0
F0.18120260668123936
sI1
F0.76386189981192221
sI2
F0.86241890123114084
sI3
F0.54336589205549446
sI4
F0.086451767555031298
ssS'wish'
p1777
(dp1778
I0
F0.71416296331901896
sI1
F0.44298652010312428
sI2
F0.82753483455221954
sI3
F0.91743001775959998
sI4
F0.70831337952700768
ssS'nieuwe'
p1779
(dp1780
I0
F0.0039369866944493201
sI1
F0.19623375116554448
sI2
F0.10553615036340108
sI3
F0.40014641110639876
sI4
F0.52205275948399565
ssS'planet'
p1781
(dp1782
I0
F-0.22518863341085782
sI1
F0.016304204048292768
sI2
F0.19298668922863266
sI3
F1.1115104533256874
sI4
F0.88657437932137007
ssS'kinderen'
p1783
(dp1784
I0
F0.50146797773494312
sI1
F0.9505978248043937
sI2
F0.61731502125674553
sI3
F0.72631245676361023
sI4
F0.78475311912841306
ssS'dinsdag'
p1785
(dp1786
I0
F0.0810195486791397
sI1
F0.91093276618745989
sI2
F0.25055183690432159
sI3
F0.31976328724714037
sI4
F0.23043029244560398
ssS'site'
p1787
(dp1788
I0
F0.82714442462326587
sI1
F0.60313065408533284
sI2
F0.092432515653220276
sI3
F0.15440712453898311
sI4
F0.80173815619237487
ssS'zeer'
p1789
(dp1790
I0
F0.89706865838844507
sI1
F0.70089944168568508
sI2
F0.22351958359878588
sI3
F0.36051329301942492
sI4
F0.5068600061340448
ssS'uitgevonden'
p1791
(dp1792
I0
F0.28025946978448329
sI1
F0.20458429153350183
sI2
F0.79605478916878947
sI3
F0.86844348689114403
sI4
F0.2478204540547265
ssS'reclame'
p1793
(dp1794
I0
F0.44602111932595595
sI1
F0.11936137020455019
sI2
F0.31864847464789914
sI3
F0.78164501401173181
sI4
F0.19287033747976007
ssS'proeftijd'
p1795
(dp1796
I0
F0.62960616208616749
sI1
F0.207082317566123
sI2
F0.58045505378350604
sI3
F0.39486272378128762
sI4
F0.59036274567062041
ssS'willem'
p1797
(dp1798
I0
F-0.027781113768764177
sI1
F0.62207914193233338
sI2
F0.29350100440832949
sI3
F0.82605895450025613
sI4
F0.74475237060354693
ssS'mails'
p1799
(dp1800
I0
F0.14942824822472128
sI1
F0.47828849769908754
sI2
F0.16539028195511424
sI3
F0.24337563687038682
sI4
F0.10153611907072543
ssS'paard'
p1801
(dp1802
I0
F0.051030345704536066
sI1
F0.91016863011351612
sI2
F0.2543503900134082
sI3
F0.41590016496772259
sI4
F0.72647047891653938
ssS'willen'
p1803
(dp1804
I0
F-0.061842972414809627
sI1
F0.97315606483256878
sI2
F0.045417315065170862
sI3
F0.85634010289719198
sI4
F0.30069832037274324
ssS'af'
p1805
(dp1806
I0
F-0.034525257723872389
sI1
F0.87534978365597971
sI2
F0.63083778077670105
sI3
F0.96938694953892457
sI4
F0.51139030672587726
ssS'televisieprogramma'
p1807
(dp1808
I0
F0.78069455931961329
sI1
F0.70940410632276618
sI2
F0.56537417128655598
sI3
F-0.20180849962666553
sI4
F0.50180052307090572
ssS'ah'
p1809
(dp1810
I0
F0.032517688135288034
sI1
F0.74819723607180533
sI2
F0.72230184839595168
sI3
F1.9143066242765849
sI4
F0.2298384514230391
ssS'politica'
p1811
(dp1812
I0
F0.14091549161205943
sI1
F0.35466364492518515
sI2
F0.31855769940694145
sI3
F0.5935685337734935
sI4
F0.57024845559620219
ssS'al'
p1813
(dp1814
I0
F-0.29502822500890191
sI1
F0.16255429111301997
sI2
F0.15615030791189635
sI3
F1.0774662653358198
sI4
F0.41986355264660363
ssS'herschrijven'
p1815
(dp1816
I0
F0.29735500866566694
sI1
F0.74607629440654621
sI2
F0.78615117904663512
sI3
F0.27159662459169109
sI4
F0.89126104889288071
ssS'erin'
p1817
(dp1818
I0
F0.55531149712993677
sI1
F0.12082901632129645
sI2
F0.83630418663961059
sI3
F0.11922988266740486
sI4
F0.11046341106331727
ssS'as'
p1819
(dp1820
I0
F1.1814554879316927
sI1
F0.51503003565823247
sI2
F0.59146412968223416
sI3
F-0.49248584437921439
sI4
F0.657400828450315
ssS'flinterdun'
p1821
(dp1822
I0
F0.78622655921444595
sI1
F0.18409780682812854
sI2
F0.29144576115272641
sI3
F0.15442411256998168
sI4
F0.012224682809877752
ssS'uit'
p1823
(dp1824
I0
F-0.27684930628727578
sI1
F0.8597893270994742
sI2
F0.69669713332463679
sI3
F0.36436704046378321
sI4
F0.20412169326764293
ssS'uitgevoerd'
p1825
(dp1826
I0
F0.72762061132876954
sI1
F0.83178362757947566
sI2
F0.3275841354662406
sI3
F0.4822738077321842
sI4
F0.29278276018167276
ssS'deed'
p1827
(dp1828
I0
F0.98692193529132954
sI1
F0.82600757056868435
sI2
F0.087445657270269053
sI3
F0.42936376938598403
sI4
F0.10856311764680053
ssS'komen'
p1829
(dp1830
I0
F-0.12194220116192916
sI1
F0.8848295189350126
sI2
F0.80664828975626168
sI3
F1.4014473136066246
sI4
F-0.41509470107970486
ssS'check'
p1831
(dp1832
I0
F0.20002874350150296
sI1
F0.67761163159306881
sI2
F0.081155083760910338
sI3
F0.15315253143829599
sI4
F0.3914971152582335
ssS'vakantie'
p1833
(dp1834
I0
F0.61636209023066046
sI1
F0.02096303706292435
sI2
F0.74403459775254677
sI3
F0.61040900676947873
sI4
F0.95266172143388828
ssS'relativeert'
p1835
(dp1836
I0
F0.70844460143028043
sI1
F0.7952133144664898
sI2
F0.90027542556876738
sI3
F0.74603766929897564
sI4
F0.20066054081708409
ssS'muziek'
p1837
(dp1838
I0
F0.90197791234421587
sI1
F0.75368561735179607
sI2
F0.05120759917400957
sI3
F0.90394103399704906
sI4
F0.72030780271710737
ssS'intervieuw'
p1839
(dp1840
I0
F0.56765505836342767
sI1
F0.16547988488593895
sI2
F0.38102098154177683
sI3
F0.57238962293758477
sI4
F0.052392736227889966
ssS'verheugd'
p1841
(dp1842
I0
F0.55236150080957702
sI1
F0.40132533803749471
sI2
F0.52484475465942193
sI3
F0.13357011747123354
sI4
F0.33706707810217373
ssS'erger'
p1843
(dp1844
I0
F0.018786678281600851
sI1
F0.74847456789216982
sI2
F0.99107657826685125
sI3
F0.44782983600621795
sI4
F0.44718010631398597
ssS'na'
p1845
(dp1846
I0
F0.47365968579972495
sI1
F0.7581359522364749
sI2
F0.97470011922894406
sI3
F0.60769414409210931
sI4
F0.50423460463258807
ssS'tip'
p1847
(dp1848
I0
F0.17119361293568161
sI1
F0.77750152882408285
sI2
F0.23220373501455335
sI3
F0.089867896297300853
sI4
F0.2315826164915015
ssS'streven'
p1849
(dp1850
I0
F0.62674168546439724
sI1
F0.29735056600805965
sI2
F0.11931386081395962
sI3
F0.82168652788662866
sI4
F0.8100446950933321
ssS'gaan'
p1851
(dp1852
I0
F-0.10886846248365772
sI1
F0.42936140383590365
sI2
F0.1148354257790416
sI3
F1.0595773303658647
sI4
F0.67176274737694586
ssS'zondag'
p1853
(dp1854
I0
F0.68780398290994471
sI1
F0.93142941455838624
sI2
F0.19591932205887425
sI3
F0.16094644552612142
sI4
F0.3747607133202947
ssS'dekist'
p1855
(dp1856
I0
F0.46120624648531489
sI1
F0.26228823736468537
sI2
F0.93878907832024949
sI3
F0.1396372528089764
sI4
F0.96074250298803721
ssS'instelling'
p1857
(dp1858
I0
F0.96336321600414876
sI1
F0.67936823373714084
sI2
F0.1183476232746742
sI3
F0.29227073083138305
sI4
F0.032784750628504909
ssS'redden'
p1859
(dp1860
I0
F0.46669591277234135
sI1
F0.59796694436574716
sI2
F0.31367587676625203
sI3
F0.25339204900735307
sI4
F0.54543063020964799
ssS'leek'
p1861
(dp1862
I0
F0.45154947079030949
sI1
F0.27145371356631481
sI2
F0.31717585131781872
sI3
F-0.13468535233040771
sI4
F0.85851420517997701
ssS'regelmatig'
p1863
(dp1864
I0
F0.57958241161101287
sI1
F0.56117879868099951
sI2
F0.9553178764025031
sI3
F0.54824308744731443
sI4
F0.78871085300951027
ssS'extra'
p1865
(dp1866
I0
F0.1061694439528751
sI1
F0.15426347715351396
sI2
F0.74845014737762083
sI3
F0.89241455599312736
sI4
F0.30881693000095783
ssS'froz'
p1867
(dp1868
I0
F0.24434321263954423
sI1
F0.82207102508587659
sI2
F0.33706696543112408
sI3
F0.39085133701655095
sI4
F0.89831800693062291
ssS'voortkomt'
p1869
(dp1870
I0
F0.22102203404400006
sI1
F0.60564206341031168
sI2
F0.76020049537904377
sI3
F0.35600422345777155
sI4
F0.07018591256829694
ssS'finale'
p1871
(dp1872
I0
F1.0207885663636649
sI1
F0.99078247951191489
sI2
F0.21874388221214874
sI3
F0.065438814090609893
sI4
F0.47116685588603541
ssS'achtergronden'
p1873
(dp1874
I0
F0.94543099157311195
sI1
F0.65380601350248602
sI2
F0.36078766548518332
sI3
F-0.12696321390725165
sI4
F0.038446531826415678
ssS'geregiseerd'
p1875
(dp1876
I0
F0.72052071442331245
sI1
F0.90211083962505634
sI2
F0.22108281531619112
sI3
F-0.32540803074431435
sI4
F0.78302115056638988
ssS'docus'
p1877
(dp1878
I0
F0.53206995186185324
sI1
F0.19671066983235475
sI2
F0.71223389999635434
sI3
F0.21320920225066733
sI4
F0.79660432622029198
ssS'nummers'
p1879
(dp1880
I0
F0.32506627308047736
sI1
F0.79279039291513631
sI2
F0.6141251320559471
sI3
F0.61610444148577759
sI4
F0.15313750698532716
ssS'hooiemand'
p1881
(dp1882
I0
F0.62038828358347797
sI1
F0.31992419769986497
sI2
F0.83159363174523404
sI3
F0.38988853278529767
sI4
F0.76698835684382627
ssS'wonderlijk'
p1883
(dp1884
I0
F0.26238232210178247
sI1
F0.29951458239602263
sI2
F0.17045201196764911
sI3
F0.5978839106415389
sI4
F0.81396729630631059
ssS'slaan'
p1885
(dp1886
I0
F0.13104524343468082
sI1
F0.17224422143888776
sI2
F0.9346181009269986
sI3
F0.82655799650554529
sI4
F0.79943133232556651
ssS'vrij'
p1887
(dp1888
I0
F-0.083655571837727219
sI1
F0.28033903113292757
sI2
F0.82924038748851381
sI3
F0.48301381624206779
sI4
F0.59143307308876725
ssS'lang'
p1889
(dp1890
I0
F0.25684683792271779
sI1
F0.68678341388848108
sI2
F0.79917710647436579
sI3
F0.12583921931923678
sI4
F0.37344551184762903
ssS'verhaal'
p1891
(dp1892
I0
F0.58399503793353924
sI1
F0.078828694522695364
sI2
F0.024773395519460721
sI3
F1.3650044495529534
sI4
F0.26161074021409381
ssS'drogist'
p1893
(dp1894
I0
F0.059260454706562576
sI1
F0.23854556517721723
sI2
F0.23628699092853706
sI3
F0.72110901779285108
sI4
F-0.0053415734032722269
ssS'zetten'
p1895
(dp1896
I0
F0.33524571480771848
sI1
F0.80056543116045309
sI2
F0.73050720269466429
sI3
F0.18971303622866728
sI4
F0.8435848761329604
ssS'hmm'
p1897
(dp1898
I0
F0.63310934160704357
sI1
F0.50177341018557187
sI2
F0.78064555509735456
sI3
F0.75261305830790848
sI4
F0.84918479706652539
ssS'x2665'
p1899
(dp1900
I0
F0.69944005436390622
sI1
F0.65355227705648233
sI2
F-0.2818255882933165
sI3
F0.021280928350058164
sI4
F0.37175497421918935
ssS'youtube'
p1901
(dp1902
I0
F0.49975771494527532
sI1
F0.32999654628805658
sI2
F0.50071247230504146
sI3
F0.70914768022033758
sI4
F0.45161127035085163
ssS'wereld'
p1903
(dp1904
I0
F0.43677059362333853
sI1
F0.60211920653528017
sI2
F0.26776804323115899
sI3
F0.15323457930465573
sI4
F0.29040653039763997
ssS'eos'
p1905
(dp1906
I0
F0.23317683554854102
sI1
F0.069251439551158825
sI2
F0.55035485499517622
sI3
F0.36089726465702909
sI4
F0.11677452438756755
ssS'groot'
p1907
(dp1908
I0
F0.62973666267571404
sI1
F0.9213958394427364
sI2
F0.48384430468832856
sI3
F-0.21386066493184033
sI4
F0.7765838732183048
ssS'u'
(dp1909
I0
F0.16632835623097691
sI1
F0.84721681617942102
sI2
F0.69594437447285851
sI3
F0.81901067516507831
sI4
F0.35609161728092803
ssS'2007'
p1910
(dp1911
I0
F0.19510919297164245
sI1
F0.051981025631878855
sI2
F0.4000024651859963
sI3
F0.87005700437684408
sI4
F0.6209821547636315
ssS'verder'
p1912
(dp1913
I0
F0.34963790238896747
sI1
F0.82568640021413697
sI2
F0.35946971122317967
sI3
F0.90341486225214618
sI4
F0.80099950592492386
ssS'ziel'
p1914
(dp1915
I0
F0.2619366717319665
sI1
F0.8985742990594684
sI2
F0.8600053137203395
sI3
F-0.27098004670155473
sI4
F0.14477341743556379
ssS'opwindende'
p1916
(dp1917
I0
F1.2340303755171838
sI1
F0.20131185735319251
sI2
F0.86006071424117159
sI3
F0.036305564837547426
sI4
F0.54913434395685434
ssS'zien'
p1918
(dp1919
I0
F0.10076390574942917
sI1
F0.39811152314761072
sI2
F0.68531490287885644
sI3
F0.54889138729854281
sI4
F0.21384762234226448
ssS'2009'
p1920
(dp1921
I0
F0.15148314840599461
sI1
F0.0076932758573803675
sI2
F0.57995877413672636
sI3
F0.071609980527135075
sI4
F0.16843632234513539
ssS'lezer'
p1922
(dp1923
I0
F0.56806834719199706
sI1
F0.28643423690307857
sI2
F0.10812301004455076
sI3
F0.60057010694789836
sI4
F0.82504122186152817
ss.